
Quadcopter.elf:     file format elf32-avr

Sections:
Idx Name          Size      VMA       LMA       File off  Algn
  0 .data         000014d8  00800100  00003adc  00003b70  2**0
                  CONTENTS, ALLOC, LOAD, DATA
  1 .text         00003adc  00000000  00000000  00000094  2**1
                  CONTENTS, ALLOC, LOAD, READONLY, CODE
  2 .bss          0000007d  008015d8  008015d8  00005048  2**0
                  ALLOC
  3 .comment      00000030  00000000  00000000  00005048  2**0
                  CONTENTS, READONLY

Disassembly of section .text:

00000000 <__vectors>:
       0:	6b c0       	rjmp	.+214    	; 0xd8 <__ctors_end>
       2:	00 00       	nop
       4:	0c 94 21 0a 	jmp	0x1442	; 0x1442 <__vector_1>
       8:	0c 94 54 0a 	jmp	0x14a8	; 0x14a8 <__vector_2>
       c:	0c 94 87 0a 	jmp	0x150e	; 0x150e <__vector_3>
      10:	81 c0       	rjmp	.+258    	; 0x114 <__bad_interrupt>
      12:	00 00       	nop
      14:	7f c0       	rjmp	.+254    	; 0x114 <__bad_interrupt>
      16:	00 00       	nop
      18:	7d c0       	rjmp	.+250    	; 0x114 <__bad_interrupt>
      1a:	00 00       	nop
      1c:	7b c0       	rjmp	.+246    	; 0x114 <__bad_interrupt>
      1e:	00 00       	nop
      20:	79 c0       	rjmp	.+242    	; 0x114 <__bad_interrupt>
      22:	00 00       	nop
      24:	77 c0       	rjmp	.+238    	; 0x114 <__bad_interrupt>
      26:	00 00       	nop
      28:	75 c0       	rjmp	.+234    	; 0x114 <__bad_interrupt>
      2a:	00 00       	nop
      2c:	2e c5       	rjmp	.+2652   	; 0xa8a <__vector_11>
      2e:	00 00       	nop
      30:	71 c0       	rjmp	.+226    	; 0x114 <__bad_interrupt>
      32:	00 00       	nop
      34:	6f c0       	rjmp	.+222    	; 0x114 <__bad_interrupt>
      36:	00 00       	nop
      38:	6d c0       	rjmp	.+218    	; 0x114 <__bad_interrupt>
      3a:	00 00       	nop
      3c:	06 c5       	rjmp	.+2572   	; 0xa4a <__vector_15>
      3e:	00 00       	nop
      40:	d0 c3       	rjmp	.+1952   	; 0x7e2 <__vector_16>
      42:	00 00       	nop
      44:	67 c0       	rjmp	.+206    	; 0x114 <__bad_interrupt>
      46:	00 00       	nop
      48:	ac c3       	rjmp	.+1880   	; 0x7a2 <__vector_18>
      4a:	00 00       	nop
      4c:	63 c0       	rjmp	.+198    	; 0x114 <__bad_interrupt>
      4e:	00 00       	nop
      50:	d7 c3       	rjmp	.+1966   	; 0x800 <__vector_20>
      52:	00 00       	nop
      54:	5f c0       	rjmp	.+190    	; 0x114 <__bad_interrupt>
      56:	00 00       	nop
      58:	37 c4       	rjmp	.+2158   	; 0x8c8 <__vector_22>
      5a:	00 00       	nop
      5c:	5b c0       	rjmp	.+182    	; 0x114 <__bad_interrupt>
      5e:	00 00       	nop
      60:	59 c0       	rjmp	.+178    	; 0x114 <__bad_interrupt>
      62:	00 00       	nop
      64:	57 c0       	rjmp	.+174    	; 0x114 <__bad_interrupt>
      66:	00 00       	nop
      68:	55 c0       	rjmp	.+170    	; 0x114 <__bad_interrupt>
      6a:	00 00       	nop
      6c:	53 c0       	rjmp	.+166    	; 0x114 <__bad_interrupt>
      6e:	00 00       	nop
      70:	f9 c3       	rjmp	.+2034   	; 0x864 <__vector_28>
      72:	00 00       	nop
      74:	4f c0       	rjmp	.+158    	; 0x114 <__bad_interrupt>
      76:	00 00       	nop
      78:	59 c4       	rjmp	.+2226   	; 0x92c <__vector_30>
      7a:	00 00       	nop
      7c:	4b c0       	rjmp	.+150    	; 0x114 <__bad_interrupt>
      7e:	00 00       	nop
      80:	49 c0       	rjmp	.+146    	; 0x114 <__bad_interrupt>
      82:	00 00       	nop
      84:	47 c0       	rjmp	.+142    	; 0x114 <__bad_interrupt>
      86:	00 00       	nop
      88:	45 c0       	rjmp	.+138    	; 0x114 <__bad_interrupt>
      8a:	00 00       	nop
      8c:	08 4a       	sbci	r16, 0xA8	; 168
      8e:	d7 3b       	cpi	r29, 0xB7	; 183
      90:	3b ce       	rjmp	.-906    	; 0xfffffd08 <__eeprom_end+0xff7efd08>
      92:	01 6e       	ori	r16, 0xE1	; 225
      94:	84 bc       	out	0x24, r8	; 36
      96:	bf fd       	.word	0xfdbf	; ????
      98:	c1 2f       	mov	r28, r17
      9a:	3d 6c       	ori	r19, 0xCD	; 205
      9c:	74 31       	cpi	r23, 0x14	; 20
      9e:	9a bd       	out	0x2a, r25	; 42
      a0:	56 83       	std	Z+6, r21	; 0x06
      a2:	3d da       	rcall	.-2950   	; 0xfffff51e <__eeprom_end+0xff7ef51e>
      a4:	3d 00       	.word	0x003d	; ????
      a6:	c7 7f       	andi	r28, 0xF7	; 247
      a8:	11 be       	out	0x31, r1	; 49
      aa:	d9 e4       	ldi	r29, 0x49	; 73
      ac:	bb 4c       	sbci	r27, 0xCB	; 203
      ae:	3e 91       	ld	r19, -X
      b0:	6b aa       	std	Y+51, r6	; 0x33
      b2:	aa be       	out	0x3a, r10	; 58
      b4:	00 00       	nop
      b6:	00 80       	ld	r0, Z
      b8:	3f 05       	cpc	r19, r15
      ba:	a8 4c       	sbci	r26, 0xC8	; 200
      bc:	cd b2       	in	r12, 0x1d	; 29
      be:	d4 4e       	sbci	r29, 0xE4	; 228
      c0:	b9 38       	cpi	r27, 0x89	; 137
      c2:	36 a9       	ldd	r19, Z+54	; 0x36
      c4:	02 0c       	add	r0, r2
      c6:	50 b9       	out	0x00, r21	; 0
      c8:	91 86       	std	Z+9, r9	; 0x09
      ca:	88 08       	sbc	r8, r8
      cc:	3c a6       	std	Y+44, r3	; 0x2c
      ce:	aa aa       	std	Y+50, r10	; 0x32
      d0:	2a be       	out	0x3a, r2	; 58
      d2:	00 00       	nop
      d4:	00 80       	ld	r0, Z
      d6:	3f 00       	.word	0x003f	; ????

000000d8 <__ctors_end>:
      d8:	11 24       	eor	r1, r1
      da:	1f be       	out	0x3f, r1	; 63
      dc:	cf ef       	ldi	r28, 0xFF	; 255
      de:	d0 e4       	ldi	r29, 0x40	; 64
      e0:	de bf       	out	0x3e, r29	; 62
      e2:	cd bf       	out	0x3d, r28	; 61

000000e4 <__do_copy_data>:
      e4:	15 e1       	ldi	r17, 0x15	; 21
      e6:	a0 e0       	ldi	r26, 0x00	; 0
      e8:	b1 e0       	ldi	r27, 0x01	; 1
      ea:	ec ed       	ldi	r30, 0xDC	; 220
      ec:	fa e3       	ldi	r31, 0x3A	; 58
      ee:	00 e0       	ldi	r16, 0x00	; 0
      f0:	0b bf       	out	0x3b, r16	; 59
      f2:	02 c0       	rjmp	.+4      	; 0xf8 <__do_copy_data+0x14>
      f4:	07 90       	elpm	r0, Z+
      f6:	0d 92       	st	X+, r0
      f8:	a8 3d       	cpi	r26, 0xD8	; 216
      fa:	b1 07       	cpc	r27, r17
      fc:	d9 f7       	brne	.-10     	; 0xf4 <__do_copy_data+0x10>

000000fe <__do_clear_bss>:
      fe:	26 e1       	ldi	r18, 0x16	; 22
     100:	a8 ed       	ldi	r26, 0xD8	; 216
     102:	b5 e1       	ldi	r27, 0x15	; 21
     104:	01 c0       	rjmp	.+2      	; 0x108 <.do_clear_bss_start>

00000106 <.do_clear_bss_loop>:
     106:	1d 92       	st	X+, r1

00000108 <.do_clear_bss_start>:
     108:	a5 35       	cpi	r26, 0x55	; 85
     10a:	b2 07       	cpc	r27, r18
     10c:	e1 f7       	brne	.-8      	; 0x106 <.do_clear_bss_loop>
     10e:	f1 d2       	rcall	.+1506   	; 0x6f2 <main>
     110:	0c 94 6c 1d 	jmp	0x3ad8	; 0x3ad8 <_exit>

00000114 <__bad_interrupt>:
     114:	75 cf       	rjmp	.-278    	; 0x0 <__vectors>

00000116 <InitializeAccelerometer>:
     116:	cf 93       	push	r28
     118:	df 93       	push	r29
     11a:	cd b7       	in	r28, 0x3d	; 61
     11c:	de b7       	in	r29, 0x3e	; 62
     11e:	27 97       	sbiw	r28, 0x07	; 7
     120:	0f b6       	in	r0, 0x3f	; 63
     122:	f8 94       	cli
     124:	de bf       	out	0x3e, r29	; 62
     126:	0f be       	out	0x3f, r0	; 63
     128:	cd bf       	out	0x3d, r28	; 61
     12a:	81 e0       	ldi	r24, 0x01	; 1
     12c:	0e 94 d0 0f 	call	0x1fa0	; 0x1fa0 <InitADXL345DevAddress>
     130:	81 11       	cpse	r24, r1
     132:	02 c0       	rjmp	.+4      	; 0x138 <InitializeAccelerometer+0x22>
     134:	80 e0       	ldi	r24, 0x00	; 0
     136:	57 c0       	rjmp	.+174    	; 0x1e6 <InitializeAccelerometer+0xd0>
     138:	81 e0       	ldi	r24, 0x01	; 1
     13a:	0e 94 5d 10 	call	0x20ba	; 0x20ba <EnableDisableADXL345StandbyMode>
     13e:	88 23       	and	r24, r24
     140:	c9 f3       	breq	.-14     	; 0x134 <InitializeAccelerometer+0x1e>
     142:	1d 82       	std	Y+5, r1	; 0x05
     144:	ce 01       	movw	r24, r28
     146:	05 96       	adiw	r24, 0x05	; 5
     148:	0e 94 6c 11 	call	0x22d8	; 0x22d8 <ProgramADXL345FifoControl>
     14c:	88 23       	and	r24, r24
     14e:	91 f3       	breq	.-28     	; 0x134 <InitializeAccelerometer+0x1e>
     150:	80 e7       	ldi	r24, 0x70	; 112
     152:	8c 83       	std	Y+4, r24	; 0x04
     154:	2f e0       	ldi	r18, 0x0F	; 15
     156:	48 e0       	ldi	r20, 0x08	; 8
     158:	68 e0       	ldi	r22, 0x08	; 8
     15a:	ce 01       	movw	r24, r28
     15c:	04 96       	adiw	r24, 0x04	; 4
     15e:	0e 94 2c 12 	call	0x2458	; 0x2458 <ProgramADXL345ActivityInactivityDetection>
     162:	88 23       	and	r24, r24
     164:	39 f3       	breq	.-50     	; 0x134 <InitializeAccelerometer+0x1e>
     166:	8f ef       	ldi	r24, 0xFF	; 255
     168:	89 83       	std	Y+1, r24	; 0x01
     16a:	8c ef       	ldi	r24, 0xFC	; 252
     16c:	8a 83       	std	Y+2, r24	; 0x02
     16e:	86 e0       	ldi	r24, 0x06	; 6
     170:	8b 83       	std	Y+3, r24	; 0x03
     172:	2a e0       	ldi	r18, 0x0A	; 10
     174:	ae 01       	movw	r20, r28
     176:	4f 5f       	subi	r20, 0xFF	; 255
     178:	5f 4f       	sbci	r21, 0xFF	; 255
     17a:	61 e0       	ldi	r22, 0x01	; 1
     17c:	80 e0       	ldi	r24, 0x00	; 0
     17e:	0e 94 9c 11 	call	0x2338	; 0x2338 <ProgramADXL345DataFormat>
     182:	88 23       	and	r24, r24
     184:	b9 f2       	breq	.-82     	; 0x134 <InitializeAccelerometer+0x1e>
     186:	80 e8       	ldi	r24, 0x80	; 128
     188:	8f 83       	std	Y+7, r24	; 0x07
     18a:	8e 83       	std	Y+6, r24	; 0x06
     18c:	be 01       	movw	r22, r28
     18e:	6a 5f       	subi	r22, 0xFA	; 250
     190:	7f 4f       	sbci	r23, 0xFF	; 255
     192:	ce 01       	movw	r24, r28
     194:	07 96       	adiw	r24, 0x07	; 7
     196:	0e 94 2b 11 	call	0x2256	; 0x2256 <ProgramADXL345Interrupts>
     19a:	88 23       	and	r24, r24
     19c:	59 f2       	breq	.-106    	; 0x134 <InitializeAccelerometer+0x1e>
     19e:	3d 98       	cbi	0x07, 5	; 7
     1a0:	45 9a       	sbi	0x08, 5	; 8
     1a2:	80 91 6d 00 	lds	r24, 0x006D
     1a6:	80 62       	ori	r24, 0x20	; 32
     1a8:	80 93 6d 00 	sts	0x006D, r24
     1ac:	80 91 68 00 	lds	r24, 0x0068
     1b0:	84 60       	ori	r24, 0x04	; 4
     1b2:	80 93 68 00 	sts	0x0068, r24
     1b6:	78 94       	sei
     1b8:	0e 94 2f 0e 	call	0x1c5e	; 0x1c5e <FlushADXL345Fifo>
     1bc:	88 23       	and	r24, r24
     1be:	09 f4       	brne	.+2      	; 0x1c2 <InitializeAccelerometer+0xac>
     1c0:	b9 cf       	rjmp	.-142    	; 0x134 <InitializeAccelerometer+0x1e>
     1c2:	64 e0       	ldi	r22, 0x04	; 4
     1c4:	82 e0       	ldi	r24, 0x02	; 2
     1c6:	0e 94 ab 10 	call	0x2156	; 0x2156 <ProgramADXL345PowerCtl>
     1ca:	88 23       	and	r24, r24
     1cc:	09 f4       	brne	.+2      	; 0x1d0 <InitializeAccelerometer+0xba>
     1ce:	b2 cf       	rjmp	.-156    	; 0x134 <InitializeAccelerometer+0x1e>
     1d0:	87 e0       	ldi	r24, 0x07	; 7
     1d2:	91 e0       	ldi	r25, 0x01	; 1
     1d4:	9f 93       	push	r25
     1d6:	8f 93       	push	r24
     1d8:	84 e0       	ldi	r24, 0x04	; 4
     1da:	8f 93       	push	r24
     1dc:	fb d2       	rcall	.+1526   	; 0x7d4 <SendTrace>
     1de:	0f 90       	pop	r0
     1e0:	0f 90       	pop	r0
     1e2:	0f 90       	pop	r0
     1e4:	81 e0       	ldi	r24, 0x01	; 1
     1e6:	27 96       	adiw	r28, 0x07	; 7
     1e8:	0f b6       	in	r0, 0x3f	; 63
     1ea:	f8 94       	cli
     1ec:	de bf       	out	0x3e, r29	; 62
     1ee:	0f be       	out	0x3f, r0	; 63
     1f0:	cd bf       	out	0x3d, r28	; 61
     1f2:	df 91       	pop	r29
     1f4:	cf 91       	pop	r28
     1f6:	08 95       	ret

000001f8 <ReadAccelerometerData>:
     1f8:	ff 92       	push	r15
     1fa:	0f 93       	push	r16
     1fc:	1f 93       	push	r17
     1fe:	cf 93       	push	r28
     200:	df 93       	push	r29
     202:	1f 92       	push	r1
     204:	cd b7       	in	r28, 0x3d	; 61
     206:	de b7       	in	r29, 0x3e	; 62
     208:	8c 01       	movw	r16, r24
     20a:	ce 01       	movw	r24, r28
     20c:	01 96       	adiw	r24, 0x01	; 1
     20e:	0e 94 9f 0d 	call	0x1b3e	; 0x1b3e <ReadADXL345InterruptSource>
     212:	81 11       	cpse	r24, r1
     214:	02 c0       	rjmp	.+4      	; 0x21a <ReadAccelerometerData+0x22>
     216:	80 e0       	ldi	r24, 0x00	; 0
     218:	7e c0       	rjmp	.+252    	; 0x316 <ReadAccelerometerData+0x11e>
     21a:	89 81       	ldd	r24, Y+1	; 0x01
     21c:	1f 92       	push	r1
     21e:	8f 93       	push	r24
     220:	86 e2       	ldi	r24, 0x26	; 38
     222:	91 e0       	ldi	r25, 0x01	; 1
     224:	9f 93       	push	r25
     226:	8f 93       	push	r24
     228:	84 e0       	ldi	r24, 0x04	; 4
     22a:	f8 2e       	mov	r15, r24
     22c:	ff 92       	push	r15
     22e:	d2 d2       	rcall	.+1444   	; 0x7d4 <SendTrace>
     230:	89 81       	ldd	r24, Y+1	; 0x01
     232:	0f 90       	pop	r0
     234:	0f 90       	pop	r0
     236:	0f 90       	pop	r0
     238:	0f 90       	pop	r0
     23a:	0f 90       	pop	r0
     23c:	87 ff       	sbrs	r24, 7
     23e:	eb cf       	rjmp	.-42     	; 0x216 <ReadAccelerometerData+0x1e>
     240:	b8 01       	movw	r22, r16
     242:	81 e0       	ldi	r24, 0x01	; 1
     244:	0e 94 6e 0e 	call	0x1cdc	; 0x1cdc <ReadADXL345AccAndTiltData>
     248:	88 23       	and	r24, r24
     24a:	29 f3       	breq	.-54     	; 0x216 <ReadAccelerometerData+0x1e>
     24c:	f8 01       	movw	r30, r16
     24e:	83 81       	ldd	r24, Z+3	; 0x03
     250:	8f 93       	push	r24
     252:	82 81       	ldd	r24, Z+2	; 0x02
     254:	8f 93       	push	r24
     256:	81 81       	ldd	r24, Z+1	; 0x01
     258:	8f 93       	push	r24
     25a:	80 81       	ld	r24, Z
     25c:	8f 93       	push	r24
     25e:	80 e4       	ldi	r24, 0x40	; 64
     260:	91 e0       	ldi	r25, 0x01	; 1
     262:	9f 93       	push	r25
     264:	8f 93       	push	r24
     266:	ff 92       	push	r15
     268:	b5 d2       	rcall	.+1386   	; 0x7d4 <SendTrace>
     26a:	f8 01       	movw	r30, r16
     26c:	87 81       	ldd	r24, Z+7	; 0x07
     26e:	8f 93       	push	r24
     270:	86 81       	ldd	r24, Z+6	; 0x06
     272:	8f 93       	push	r24
     274:	85 81       	ldd	r24, Z+5	; 0x05
     276:	8f 93       	push	r24
     278:	84 81       	ldd	r24, Z+4	; 0x04
     27a:	8f 93       	push	r24
     27c:	82 e5       	ldi	r24, 0x52	; 82
     27e:	91 e0       	ldi	r25, 0x01	; 1
     280:	9f 93       	push	r25
     282:	8f 93       	push	r24
     284:	ff 92       	push	r15
     286:	a6 d2       	rcall	.+1356   	; 0x7d4 <SendTrace>
     288:	f8 01       	movw	r30, r16
     28a:	83 85       	ldd	r24, Z+11	; 0x0b
     28c:	8f 93       	push	r24
     28e:	82 85       	ldd	r24, Z+10	; 0x0a
     290:	8f 93       	push	r24
     292:	81 85       	ldd	r24, Z+9	; 0x09
     294:	8f 93       	push	r24
     296:	80 85       	ldd	r24, Z+8	; 0x08
     298:	8f 93       	push	r24
     29a:	84 e6       	ldi	r24, 0x64	; 100
     29c:	91 e0       	ldi	r25, 0x01	; 1
     29e:	9f 93       	push	r25
     2a0:	8f 93       	push	r24
     2a2:	ff 92       	push	r15
     2a4:	97 d2       	rcall	.+1326   	; 0x7d4 <SendTrace>
     2a6:	f8 01       	movw	r30, r16
     2a8:	87 85       	ldd	r24, Z+15	; 0x0f
     2aa:	8f 93       	push	r24
     2ac:	86 85       	ldd	r24, Z+14	; 0x0e
     2ae:	8f 93       	push	r24
     2b0:	85 85       	ldd	r24, Z+13	; 0x0d
     2b2:	8f 93       	push	r24
     2b4:	84 85       	ldd	r24, Z+12	; 0x0c
     2b6:	8f 93       	push	r24
     2b8:	87 e7       	ldi	r24, 0x77	; 119
     2ba:	91 e0       	ldi	r25, 0x01	; 1
     2bc:	9f 93       	push	r25
     2be:	8f 93       	push	r24
     2c0:	ff 92       	push	r15
     2c2:	88 d2       	rcall	.+1296   	; 0x7d4 <SendTrace>
     2c4:	f8 01       	movw	r30, r16
     2c6:	83 89       	ldd	r24, Z+19	; 0x13
     2c8:	8f 93       	push	r24
     2ca:	82 89       	ldd	r24, Z+18	; 0x12
     2cc:	8f 93       	push	r24
     2ce:	81 89       	ldd	r24, Z+17	; 0x11
     2d0:	8f 93       	push	r24
     2d2:	80 89       	ldd	r24, Z+16	; 0x10
     2d4:	8f 93       	push	r24
     2d6:	81 e9       	ldi	r24, 0x91	; 145
     2d8:	91 e0       	ldi	r25, 0x01	; 1
     2da:	9f 93       	push	r25
     2dc:	8f 93       	push	r24
     2de:	ff 92       	push	r15
     2e0:	79 d2       	rcall	.+1266   	; 0x7d4 <SendTrace>
     2e2:	0f b6       	in	r0, 0x3f	; 63
     2e4:	f8 94       	cli
     2e6:	de bf       	out	0x3e, r29	; 62
     2e8:	0f be       	out	0x3f, r0	; 63
     2ea:	cd bf       	out	0x3d, r28	; 61
     2ec:	f8 01       	movw	r30, r16
     2ee:	87 89       	ldd	r24, Z+23	; 0x17
     2f0:	8f 93       	push	r24
     2f2:	86 89       	ldd	r24, Z+22	; 0x16
     2f4:	8f 93       	push	r24
     2f6:	85 89       	ldd	r24, Z+21	; 0x15
     2f8:	8f 93       	push	r24
     2fa:	84 89       	ldd	r24, Z+20	; 0x14
     2fc:	8f 93       	push	r24
     2fe:	8b ea       	ldi	r24, 0xAB	; 171
     300:	91 e0       	ldi	r25, 0x01	; 1
     302:	9f 93       	push	r25
     304:	8f 93       	push	r24
     306:	ff 92       	push	r15
     308:	65 d2       	rcall	.+1226   	; 0x7d4 <SendTrace>
     30a:	0f b6       	in	r0, 0x3f	; 63
     30c:	f8 94       	cli
     30e:	de bf       	out	0x3e, r29	; 62
     310:	0f be       	out	0x3f, r0	; 63
     312:	cd bf       	out	0x3d, r28	; 61
     314:	81 e0       	ldi	r24, 0x01	; 1
     316:	0f 90       	pop	r0
     318:	df 91       	pop	r29
     31a:	cf 91       	pop	r28
     31c:	1f 91       	pop	r17
     31e:	0f 91       	pop	r16
     320:	ff 90       	pop	r15
     322:	08 95       	ret

00000324 <InitTransmitter>:
     324:	cf 93       	push	r28
     326:	df 93       	push	r29
     328:	cd b7       	in	r28, 0x3d	; 61
     32a:	de b7       	in	r29, 0x3e	; 62
     32c:	a1 97       	sbiw	r28, 0x21	; 33
     32e:	0f b6       	in	r0, 0x3f	; 63
     330:	f8 94       	cli
     332:	de bf       	out	0x3e, r29	; 62
     334:	0f be       	out	0x3f, r0	; 63
     336:	cd bf       	out	0x3d, r28	; 61
     338:	19 82       	std	Y+1, r1	; 0x01
     33a:	81 e0       	ldi	r24, 0x01	; 1
     33c:	89 a3       	std	Y+33, r24	; 0x21
     33e:	1f 82       	std	Y+7, r1	; 0x07
     340:	18 86       	std	Y+8, r1	; 0x08
     342:	19 86       	std	Y+9, r1	; 0x09
     344:	88 e7       	ldi	r24, 0x78	; 120
     346:	8a 83       	std	Y+2, r24	; 0x02
     348:	8b 83       	std	Y+3, r24	; 0x03
     34a:	8c 83       	std	Y+4, r24	; 0x04
     34c:	8d 83       	std	Y+5, r24	; 0x05
     34e:	8e 83       	std	Y+6, r24	; 0x06
     350:	1f 86       	std	Y+15, r1	; 0x0f
     352:	18 8a       	std	Y+16, r1	; 0x10
     354:	19 8a       	std	Y+17, r1	; 0x11
     356:	80 ee       	ldi	r24, 0xE0	; 224
     358:	8a 87       	std	Y+10, r24	; 0x0a
     35a:	80 ed       	ldi	r24, 0xD0	; 208
     35c:	8b 87       	std	Y+11, r24	; 0x0b
     35e:	80 ec       	ldi	r24, 0xC0	; 192
     360:	8c 87       	std	Y+12, r24	; 0x0c
     362:	80 eb       	ldi	r24, 0xB0	; 176
     364:	8d 87       	std	Y+13, r24	; 0x0d
     366:	80 ea       	ldi	r24, 0xA0	; 160
     368:	8e 87       	std	Y+14, r24	; 0x0e
     36a:	8f e0       	ldi	r24, 0x0F	; 15
     36c:	8a 8b       	std	Y+18, r24	; 0x12
     36e:	8b 8b       	std	Y+19, r24	; 0x13
     370:	8e e6       	ldi	r24, 0x6E	; 110
     372:	8c 8b       	std	Y+20, r24	; 0x14
     374:	1e 8a       	std	Y+22, r1	; 0x16
     376:	1d 8a       	std	Y+21, r1	; 0x15
     378:	1a 8e       	std	Y+26, r1	; 0x1a
     37a:	19 8e       	std	Y+25, r1	; 0x19
     37c:	1e 8e       	std	Y+30, r1	; 0x1e
     37e:	1d 8e       	std	Y+29, r1	; 0x1d
     380:	18 8e       	std	Y+24, r1	; 0x18
     382:	1f 8a       	std	Y+23, r1	; 0x17
     384:	1c 8e       	std	Y+28, r1	; 0x1c
     386:	1b 8e       	std	Y+27, r1	; 0x1b
     388:	18 a2       	std	Y+32, r1	; 0x20
     38a:	1f 8e       	std	Y+31, r1	; 0x1f
     38c:	ce 01       	movw	r24, r28
     38e:	01 96       	adiw	r24, 0x01	; 1
     390:	51 d5       	rcall	.+2722   	; 0xe34 <InitTransceiver>
     392:	a1 96       	adiw	r28, 0x21	; 33
     394:	0f b6       	in	r0, 0x3f	; 63
     396:	f8 94       	cli
     398:	de bf       	out	0x3e, r29	; 62
     39a:	0f be       	out	0x3f, r0	; 63
     39c:	cd bf       	out	0x3d, r28	; 61
     39e:	df 91       	pop	r29
     3a0:	cf 91       	pop	r28
     3a2:	08 95       	ret

000003a4 <PerformHandshake>:
     3a4:	cf 93       	push	r28
     3a6:	df 93       	push	r29
     3a8:	00 d0       	rcall	.+0      	; 0x3aa <PerformHandshake+0x6>
     3aa:	00 d0       	rcall	.+0      	; 0x3ac <PerformHandshake+0x8>
     3ac:	cd b7       	in	r28, 0x3d	; 61
     3ae:	de b7       	in	r29, 0x3e	; 62
     3b0:	82 e0       	ldi	r24, 0x02	; 2
     3b2:	8b 83       	std	Y+3, r24	; 0x03
     3b4:	8d ef       	ldi	r24, 0xFD	; 253
     3b6:	93 e0       	ldi	r25, 0x03	; 3
     3b8:	9a 83       	std	Y+2, r25	; 0x02
     3ba:	89 83       	std	Y+1, r24	; 0x01
     3bc:	be 01       	movw	r22, r28
     3be:	6d 5f       	subi	r22, 0xFD	; 253
     3c0:	7f 4f       	sbci	r23, 0xFF	; 255
     3c2:	ce 01       	movw	r24, r28
     3c4:	01 96       	adiw	r24, 0x01	; 1
     3c6:	16 d4       	rcall	.+2092   	; 0xbf4 <TCTransmitAckPayload>
     3c8:	85 e0       	ldi	r24, 0x05	; 5
     3ca:	85 bd       	out	0x25, r24	; 37
     3cc:	16 bc       	out	0x26, r1	; 38
     3ce:	10 92 d8 15 	sts	0x15D8, r1
     3d2:	10 92 d9 15 	sts	0x15D9, r1
     3d6:	7f d6       	rcall	.+3326   	; 0x10d6 <TCIsReceivePayloadAvailable>
     3d8:	81 11       	cpse	r24, r1
     3da:	11 c0       	rjmp	.+34     	; 0x3fe <PerformHandshake+0x5a>
     3dc:	80 91 d8 15 	lds	r24, 0x15D8
     3e0:	88 23       	and	r24, r24
     3e2:	c9 f3       	breq	.-14     	; 0x3d6 <PerformHandshake+0x32>
     3e4:	88 ec       	ldi	r24, 0xC8	; 200
     3e6:	91 e0       	ldi	r25, 0x01	; 1
     3e8:	9f 93       	push	r25
     3ea:	8f 93       	push	r24
     3ec:	81 e0       	ldi	r24, 0x01	; 1
     3ee:	8f 93       	push	r24
     3f0:	f1 d1       	rcall	.+994    	; 0x7d4 <SendTrace>
     3f2:	0e 94 85 18 	call	0x310a	; 0x310a <PerformEmergencyLanding>
     3f6:	0f 90       	pop	r0
     3f8:	0f 90       	pop	r0
     3fa:	0f 90       	pop	r0
     3fc:	16 c0       	rjmp	.+44     	; 0x42a <PerformHandshake+0x86>
     3fe:	15 bc       	out	0x25, r1	; 37
     400:	ce 01       	movw	r24, r28
     402:	03 96       	adiw	r24, 0x03	; 3
     404:	57 d4       	rcall	.+2222   	; 0xcb4 <TCGetReceivedPayloadLength>
     406:	8b 81       	ldd	r24, Y+3	; 0x03
     408:	8f 73       	andi	r24, 0x3F	; 63
     40a:	82 30       	cpi	r24, 0x02	; 2
     40c:	81 f0       	breq	.+32     	; 0x42e <PerformHandshake+0x8a>
     40e:	1f 92       	push	r1
     410:	8f 93       	push	r24
     412:	87 ed       	ldi	r24, 0xD7	; 215
     414:	91 e0       	ldi	r25, 0x01	; 1
     416:	9f 93       	push	r25
     418:	8f 93       	push	r24
     41a:	81 e0       	ldi	r24, 0x01	; 1
     41c:	8f 93       	push	r24
     41e:	da d1       	rcall	.+948    	; 0x7d4 <SendTrace>
     420:	0f 90       	pop	r0
     422:	0f 90       	pop	r0
     424:	0f 90       	pop	r0
     426:	0f 90       	pop	r0
     428:	0f 90       	pop	r0
     42a:	80 e0       	ldi	r24, 0x00	; 0
     42c:	2d c0       	rjmp	.+90     	; 0x488 <PerformHandshake+0xe4>
     42e:	1a 82       	std	Y+2, r1	; 0x02
     430:	19 82       	std	Y+1, r1	; 0x01
     432:	be 01       	movw	r22, r28
     434:	6d 5f       	subi	r22, 0xFD	; 253
     436:	7f 4f       	sbci	r23, 0xFF	; 255
     438:	ce 01       	movw	r24, r28
     43a:	01 96       	adiw	r24, 0x01	; 1
     43c:	75 d4       	rcall	.+2282   	; 0xd28 <TCReceivePayload>
     43e:	81 11       	cpse	r24, r1
     440:	0d c0       	rjmp	.+26     	; 0x45c <PerformHandshake+0xb8>
     442:	2d e0       	ldi	r18, 0x0D	; 13
     444:	32 e0       	ldi	r19, 0x02	; 2
     446:	3f 93       	push	r19
     448:	2f 93       	push	r18
     44a:	91 e0       	ldi	r25, 0x01	; 1
     44c:	9f 93       	push	r25
     44e:	8c 83       	std	Y+4, r24	; 0x04
     450:	c1 d1       	rcall	.+898    	; 0x7d4 <SendTrace>
     452:	0f 90       	pop	r0
     454:	0f 90       	pop	r0
     456:	0f 90       	pop	r0
     458:	8c 81       	ldd	r24, Y+4	; 0x04
     45a:	16 c0       	rjmp	.+44     	; 0x488 <PerformHandshake+0xe4>
     45c:	89 81       	ldd	r24, Y+1	; 0x01
     45e:	9a 81       	ldd	r25, Y+2	; 0x02
     460:	8c 3f       	cpi	r24, 0xFC	; 252
     462:	23 e0       	ldi	r18, 0x03	; 3
     464:	92 07       	cpc	r25, r18
     466:	29 f0       	breq	.+10     	; 0x472 <PerformHandshake+0xce>
     468:	9f 93       	push	r25
     46a:	8f 93       	push	r24
     46c:	86 e3       	ldi	r24, 0x36	; 54
     46e:	92 e0       	ldi	r25, 0x02	; 2
     470:	d2 cf       	rjmp	.-92     	; 0x416 <PerformHandshake+0x72>
     472:	81 e8       	ldi	r24, 0x81	; 129
     474:	92 e0       	ldi	r25, 0x02	; 2
     476:	9f 93       	push	r25
     478:	8f 93       	push	r24
     47a:	84 e0       	ldi	r24, 0x04	; 4
     47c:	8f 93       	push	r24
     47e:	aa d1       	rcall	.+852    	; 0x7d4 <SendTrace>
     480:	0f 90       	pop	r0
     482:	0f 90       	pop	r0
     484:	0f 90       	pop	r0
     486:	81 e0       	ldi	r24, 0x01	; 1
     488:	0f 90       	pop	r0
     48a:	0f 90       	pop	r0
     48c:	0f 90       	pop	r0
     48e:	0f 90       	pop	r0
     490:	df 91       	pop	r29
     492:	cf 91       	pop	r28
     494:	08 95       	ret

00000496 <InitializeWatchDogTimer>:
     496:	14 bc       	out	0x24, r1	; 36
     498:	15 bc       	out	0x25, r1	; 37
     49a:	16 bc       	out	0x26, r1	; 38
     49c:	17 bc       	out	0x27, r1	; 39
     49e:	18 bc       	out	0x28, r1	; 40
     4a0:	81 e0       	ldi	r24, 0x01	; 1
     4a2:	80 93 6e 00 	sts	0x006E, r24
     4a6:	08 95       	ret

000004a8 <SendCompassHeading>:
     4a8:	cf 92       	push	r12
     4aa:	df 92       	push	r13
     4ac:	ef 92       	push	r14
     4ae:	ff 92       	push	r15
     4b0:	0f 93       	push	r16
     4b2:	1f 93       	push	r17
     4b4:	cf 93       	push	r28
     4b6:	df 93       	push	r29
     4b8:	cd b7       	in	r28, 0x3d	; 61
     4ba:	de b7       	in	r29, 0x3e	; 62
     4bc:	e4 97       	sbiw	r28, 0x34	; 52
     4be:	0f b6       	in	r0, 0x3f	; 63
     4c0:	f8 94       	cli
     4c2:	de bf       	out	0x3e, r29	; 62
     4c4:	0f be       	out	0x3f, r0	; 63
     4c6:	cd bf       	out	0x3d, r28	; 61
     4c8:	1f a6       	std	Y+47, r1	; 0x2f
     4ca:	18 aa       	std	Y+48, r1	; 0x30
     4cc:	19 aa       	std	Y+49, r1	; 0x31
     4ce:	1a aa       	std	Y+50, r1	; 0x32
     4d0:	ce 01       	movw	r24, r28
     4d2:	01 96       	adiw	r24, 0x01	; 1
     4d4:	91 de       	rcall	.-734    	; 0x1f8 <ReadAccelerometerData>
     4d6:	81 11       	cpse	r24, r1
     4d8:	03 c0       	rjmp	.+6      	; 0x4e0 <SendCompassHeading+0x38>
     4da:	27 e9       	ldi	r18, 0x97	; 151
     4dc:	32 e0       	ldi	r19, 0x02	; 2
     4de:	28 c0       	rjmp	.+80     	; 0x530 <SendCompassHeading+0x88>
     4e0:	ce 01       	movw	r24, r28
     4e2:	49 96       	adiw	r24, 0x19	; 25
     4e4:	0e 94 2d 15 	call	0x2a5a	; 0x2a5a <ReadHMC5883LContinuousMeasurementData>
     4e8:	81 11       	cpse	r24, r1
     4ea:	03 c0       	rjmp	.+6      	; 0x4f2 <SendCompassHeading+0x4a>
     4ec:	2c eb       	ldi	r18, 0xBC	; 188
     4ee:	32 e0       	ldi	r19, 0x02	; 2
     4f0:	1f c0       	rjmp	.+62     	; 0x530 <SendCompassHeading+0x88>
     4f2:	80 ee       	ldi	r24, 0xE0	; 224
     4f4:	92 e0       	ldi	r25, 0x02	; 2
     4f6:	9f 93       	push	r25
     4f8:	8f 93       	push	r24
     4fa:	84 e0       	ldi	r24, 0x04	; 4
     4fc:	f8 2e       	mov	r15, r24
     4fe:	ff 92       	push	r15
     500:	69 d1       	rcall	.+722    	; 0x7d4 <SendTrace>
     502:	09 89       	ldd	r16, Y+17	; 0x11
     504:	1a 89       	ldd	r17, Y+18	; 0x12
     506:	2b 89       	ldd	r18, Y+19	; 0x13
     508:	3c 89       	ldd	r19, Y+20	; 0x14
     50a:	4d 85       	ldd	r20, Y+13	; 0x0d
     50c:	5e 85       	ldd	r21, Y+14	; 0x0e
     50e:	6f 85       	ldd	r22, Y+15	; 0x0f
     510:	78 89       	ldd	r23, Y+16	; 0x10
     512:	ce 01       	movw	r24, r28
     514:	8b 96       	adiw	r24, 0x2b	; 43
     516:	6c 01       	movw	r12, r24
     518:	ee 24       	eor	r14, r14
     51a:	e3 94       	inc	r14
     51c:	42 97       	sbiw	r24, 0x12	; 18
     51e:	0e 94 8d 12 	call	0x251a	; 0x251a <CalculateCompassHeading>
     522:	0f 90       	pop	r0
     524:	0f 90       	pop	r0
     526:	0f 90       	pop	r0
     528:	81 11       	cpse	r24, r1
     52a:	0c c0       	rjmp	.+24     	; 0x544 <SendCompassHeading+0x9c>
     52c:	21 ef       	ldi	r18, 0xF1	; 241
     52e:	32 e0       	ldi	r19, 0x02	; 2
     530:	3f 93       	push	r19
     532:	2f 93       	push	r18
     534:	91 e0       	ldi	r25, 0x01	; 1
     536:	9f 93       	push	r25
     538:	8c ab       	std	Y+52, r24	; 0x34
     53a:	4c d1       	rcall	.+664    	; 0x7d4 <SendTrace>
     53c:	0f 90       	pop	r0
     53e:	0f 90       	pop	r0
     540:	0f 90       	pop	r0
     542:	1b c0       	rjmp	.+54     	; 0x57a <SendCompassHeading+0xd2>
     544:	88 e1       	ldi	r24, 0x18	; 24
     546:	93 e0       	ldi	r25, 0x03	; 3
     548:	9f 93       	push	r25
     54a:	8f 93       	push	r24
     54c:	ff 92       	push	r15
     54e:	42 d1       	rcall	.+644    	; 0x7d4 <SendTrace>
     550:	88 e0       	ldi	r24, 0x08	; 8
     552:	8b ab       	std	Y+51, r24	; 0x33
     554:	be 01       	movw	r22, r28
     556:	6d 5c       	subi	r22, 0xCD	; 205
     558:	7f 4f       	sbci	r23, 0xFF	; 255
     55a:	ce 01       	movw	r24, r28
     55c:	8b 96       	adiw	r24, 0x2b	; 43
     55e:	4a d3       	rcall	.+1684   	; 0xbf4 <TCTransmitAckPayload>
     560:	26 e3       	ldi	r18, 0x36	; 54
     562:	33 e0       	ldi	r19, 0x03	; 3
     564:	3f 93       	push	r19
     566:	2f 93       	push	r18
     568:	ff 92       	push	r15
     56a:	8c ab       	std	Y+52, r24	; 0x34
     56c:	33 d1       	rcall	.+614    	; 0x7d4 <SendTrace>
     56e:	0f 90       	pop	r0
     570:	0f 90       	pop	r0
     572:	0f 90       	pop	r0
     574:	0f 90       	pop	r0
     576:	0f 90       	pop	r0
     578:	0f 90       	pop	r0
     57a:	8c a9       	ldd	r24, Y+52	; 0x34
     57c:	e4 96       	adiw	r28, 0x34	; 52
     57e:	0f b6       	in	r0, 0x3f	; 63
     580:	f8 94       	cli
     582:	de bf       	out	0x3e, r29	; 62
     584:	0f be       	out	0x3f, r0	; 63
     586:	cd bf       	out	0x3d, r28	; 61
     588:	df 91       	pop	r29
     58a:	cf 91       	pop	r28
     58c:	1f 91       	pop	r17
     58e:	0f 91       	pop	r16
     590:	ff 90       	pop	r15
     592:	ef 90       	pop	r14
     594:	df 90       	pop	r13
     596:	cf 90       	pop	r12
     598:	08 95       	ret

0000059a <FlyCopter>:
     59a:	7f 92       	push	r7
     59c:	8f 92       	push	r8
     59e:	9f 92       	push	r9
     5a0:	af 92       	push	r10
     5a2:	bf 92       	push	r11
     5a4:	cf 92       	push	r12
     5a6:	df 92       	push	r13
     5a8:	ef 92       	push	r14
     5aa:	ff 92       	push	r15
     5ac:	0f 93       	push	r16
     5ae:	1f 93       	push	r17
     5b0:	cf 93       	push	r28
     5b2:	df 93       	push	r29
     5b4:	cd b7       	in	r28, 0x3d	; 61
     5b6:	de b7       	in	r29, 0x3e	; 62
     5b8:	a1 97       	sbiw	r28, 0x21	; 33
     5ba:	0f b6       	in	r0, 0x3f	; 63
     5bc:	f8 94       	cli
     5be:	de bf       	out	0x3e, r29	; 62
     5c0:	0f be       	out	0x3f, r0	; 63
     5c2:	cd bf       	out	0x3d, r28	; 61
     5c4:	95 e0       	ldi	r25, 0x05	; 5
     5c6:	79 2e       	mov	r7, r25
     5c8:	2f ef       	ldi	r18, 0xFF	; 255
     5ca:	e2 2e       	mov	r14, r18
     5cc:	21 e0       	ldi	r18, 0x01	; 1
     5ce:	f2 2e       	mov	r15, r18
     5d0:	34 e0       	ldi	r19, 0x04	; 4
     5d2:	93 2e       	mov	r9, r19
     5d4:	0f e8       	ldi	r16, 0x8F	; 143
     5d6:	13 e0       	ldi	r17, 0x03	; 3
     5d8:	4d e6       	ldi	r20, 0x6D	; 109
     5da:	c4 2e       	mov	r12, r20
     5dc:	43 e0       	ldi	r20, 0x03	; 3
     5de:	d4 2e       	mov	r13, r20
     5e0:	88 24       	eor	r8, r8
     5e2:	83 94       	inc	r8
     5e4:	51 e5       	ldi	r21, 0x51	; 81
     5e6:	a5 2e       	mov	r10, r21
     5e8:	53 e0       	ldi	r21, 0x03	; 3
     5ea:	b5 2e       	mov	r11, r21
     5ec:	5d df       	rcall	.-326    	; 0x4a8 <SendCompassHeading>
     5ee:	75 bc       	out	0x25, r7	; 37
     5f0:	16 bc       	out	0x26, r1	; 38
     5f2:	10 92 d8 15 	sts	0x15D8, r1
     5f6:	10 92 d9 15 	sts	0x15D9, r1
     5fa:	6d d5       	rcall	.+2778   	; 0x10d6 <TCIsReceivePayloadAvailable>
     5fc:	81 11       	cpse	r24, r1
     5fe:	24 c0       	rjmp	.+72     	; 0x648 <FlyCopter+0xae>
     600:	80 91 d8 15 	lds	r24, 0x15D8
     604:	88 23       	and	r24, r24
     606:	c9 f3       	breq	.-14     	; 0x5fa <FlyCopter+0x60>
     608:	88 ec       	ldi	r24, 0xC8	; 200
     60a:	91 e0       	ldi	r25, 0x01	; 1
     60c:	9f 93       	push	r25
     60e:	8f 93       	push	r24
     610:	81 e0       	ldi	r24, 0x01	; 1
     612:	8f 93       	push	r24
     614:	df d0       	rcall	.+446    	; 0x7d4 <SendTrace>
     616:	0e 94 85 18 	call	0x310a	; 0x310a <PerformEmergencyLanding>
     61a:	0f 90       	pop	r0
     61c:	0f 90       	pop	r0
     61e:	0f 90       	pop	r0
     620:	a1 96       	adiw	r28, 0x21	; 33
     622:	0f b6       	in	r0, 0x3f	; 63
     624:	f8 94       	cli
     626:	de bf       	out	0x3e, r29	; 62
     628:	0f be       	out	0x3f, r0	; 63
     62a:	cd bf       	out	0x3d, r28	; 61
     62c:	df 91       	pop	r29
     62e:	cf 91       	pop	r28
     630:	1f 91       	pop	r17
     632:	0f 91       	pop	r16
     634:	ff 90       	pop	r15
     636:	ef 90       	pop	r14
     638:	df 90       	pop	r13
     63a:	cf 90       	pop	r12
     63c:	bf 90       	pop	r11
     63e:	af 90       	pop	r10
     640:	9f 90       	pop	r9
     642:	8f 90       	pop	r8
     644:	7f 90       	pop	r7
     646:	08 95       	ret
     648:	15 bc       	out	0x25, r1	; 37
     64a:	ce 01       	movw	r24, r28
     64c:	81 96       	adiw	r24, 0x21	; 33
     64e:	32 d3       	rcall	.+1636   	; 0xcb4 <TCGetReceivedPayloadLength>
     650:	89 a1       	ldd	r24, Y+33	; 0x21
     652:	98 2f       	mov	r25, r24
     654:	9f 73       	andi	r25, 0x3F	; 63
     656:	28 2f       	mov	r18, r24
     658:	27 70       	andi	r18, 0x07	; 7
     65a:	91 f0       	breq	.+36     	; 0x680 <FlyCopter+0xe6>
     65c:	1f 92       	push	r1
     65e:	9f 93       	push	r25
     660:	bf 92       	push	r11
     662:	af 92       	push	r10
     664:	8f 92       	push	r8
     666:	b6 d0       	rcall	.+364    	; 0x7d4 <SendTrace>
     668:	be 01       	movw	r22, r28
     66a:	6f 5d       	subi	r22, 0xDF	; 223
     66c:	7f 4f       	sbci	r23, 0xFF	; 255
     66e:	ce 01       	movw	r24, r28
     670:	01 96       	adiw	r24, 0x01	; 1
     672:	5a d3       	rcall	.+1716   	; 0xd28 <TCReceivePayload>
     674:	0f 90       	pop	r0
     676:	0f 90       	pop	r0
     678:	0f 90       	pop	r0
     67a:	0f 90       	pop	r0
     67c:	0f 90       	pop	r0
     67e:	b6 cf       	rjmp	.-148    	; 0x5ec <FlyCopter+0x52>
     680:	1f 92       	push	r1
     682:	8f 93       	push	r24
     684:	ff 92       	push	r15
     686:	ef 92       	push	r14
     688:	9f 92       	push	r9
     68a:	a4 d0       	rcall	.+328    	; 0x7d4 <SendTrace>
     68c:	be 01       	movw	r22, r28
     68e:	6f 5d       	subi	r22, 0xDF	; 223
     690:	7f 4f       	sbci	r23, 0xFF	; 255
     692:	ce 01       	movw	r24, r28
     694:	01 96       	adiw	r24, 0x01	; 1
     696:	48 d3       	rcall	.+1680   	; 0xd28 <TCReceivePayload>
     698:	0f 90       	pop	r0
     69a:	0f 90       	pop	r0
     69c:	0f 90       	pop	r0
     69e:	0f 90       	pop	r0
     6a0:	0f 90       	pop	r0
     6a2:	81 11       	cpse	r24, r1
     6a4:	08 c0       	rjmp	.+16     	; 0x6b6 <FlyCopter+0x11c>
     6a6:	df 92       	push	r13
     6a8:	cf 92       	push	r12
     6aa:	8f 92       	push	r8
     6ac:	93 d0       	rcall	.+294    	; 0x7d4 <SendTrace>
     6ae:	0f 90       	pop	r0
     6b0:	0f 90       	pop	r0
     6b2:	0f 90       	pop	r0
     6b4:	9b cf       	rjmp	.-202    	; 0x5ec <FlyCopter+0x52>
     6b6:	8e 81       	ldd	r24, Y+6	; 0x06
     6b8:	8f 93       	push	r24
     6ba:	8d 81       	ldd	r24, Y+5	; 0x05
     6bc:	8f 93       	push	r24
     6be:	8c 81       	ldd	r24, Y+4	; 0x04
     6c0:	8f 93       	push	r24
     6c2:	8b 81       	ldd	r24, Y+3	; 0x03
     6c4:	8f 93       	push	r24
     6c6:	8a 81       	ldd	r24, Y+2	; 0x02
     6c8:	8f 93       	push	r24
     6ca:	89 81       	ldd	r24, Y+1	; 0x01
     6cc:	8f 93       	push	r24
     6ce:	1f 93       	push	r17
     6d0:	0f 93       	push	r16
     6d2:	9f 92       	push	r9
     6d4:	7f d0       	rcall	.+254    	; 0x7d4 <SendTrace>
     6d6:	4d 81       	ldd	r20, Y+5	; 0x05
     6d8:	5e 81       	ldd	r21, Y+6	; 0x06
     6da:	6b 81       	ldd	r22, Y+3	; 0x03
     6dc:	7c 81       	ldd	r23, Y+4	; 0x04
     6de:	89 81       	ldd	r24, Y+1	; 0x01
     6e0:	9a 81       	ldd	r25, Y+2	; 0x02
     6e2:	0e 94 be 16 	call	0x2d7c	; 0x2d7c <CalculatePulse>
     6e6:	0f b6       	in	r0, 0x3f	; 63
     6e8:	f8 94       	cli
     6ea:	de bf       	out	0x3e, r29	; 62
     6ec:	0f be       	out	0x3f, r0	; 63
     6ee:	cd bf       	out	0x3d, r28	; 61
     6f0:	7d cf       	rjmp	.-262    	; 0x5ec <FlyCopter+0x52>

000006f2 <main>:
     6f2:	0f 93       	push	r16
     6f4:	cf 93       	push	r28
     6f6:	45 e0       	ldi	r20, 0x05	; 5
     6f8:	60 e0       	ldi	r22, 0x00	; 0
     6fa:	72 e1       	ldi	r23, 0x12	; 18
     6fc:	8a e7       	ldi	r24, 0x7A	; 122
     6fe:	90 e0       	ldi	r25, 0x00	; 0
     700:	68 d0       	rcall	.+208    	; 0x7d2 <InitTrace>
     702:	87 eb       	ldi	r24, 0xB7	; 183
     704:	93 e0       	ldi	r25, 0x03	; 3
     706:	9f 93       	push	r25
     708:	8f 93       	push	r24
     70a:	c4 e0       	ldi	r28, 0x04	; 4
     70c:	cf 93       	push	r28
     70e:	62 d0       	rcall	.+196    	; 0x7d4 <SendTrace>
     710:	84 ec       	ldi	r24, 0xC4	; 196
     712:	93 e0       	ldi	r25, 0x03	; 3
     714:	9f 93       	push	r25
     716:	8f 93       	push	r24
     718:	cf 93       	push	r28
     71a:	5c d0       	rcall	.+184    	; 0x7d4 <SendTrace>
     71c:	40 e0       	ldi	r20, 0x00	; 0
     71e:	50 e0       	ldi	r21, 0x00	; 0
     720:	60 e0       	ldi	r22, 0x00	; 0
     722:	70 e0       	ldi	r23, 0x00	; 0
     724:	81 e0       	ldi	r24, 0x01	; 1
     726:	26 d7       	rcall	.+3660   	; 0x1574 <InitTWI>
     728:	0f 90       	pop	r0
     72a:	0f 90       	pop	r0
     72c:	0f 90       	pop	r0
     72e:	0f 90       	pop	r0
     730:	0f 90       	pop	r0
     732:	0f 90       	pop	r0
     734:	88 23       	and	r24, r24
     736:	79 f1       	breq	.+94     	; 0x796 <main+0xa4>
     738:	e4 d5       	rcall	.+3016   	; 0x1302 <InitExtInt>
     73a:	f4 dd       	rcall	.-1048   	; 0x324 <InitTransmitter>
     73c:	c8 2f       	mov	r28, r24
     73e:	81 11       	cpse	r24, r1
     740:	03 c0       	rjmp	.+6      	; 0x748 <main+0x56>
     742:	28 ed       	ldi	r18, 0xD8	; 216
     744:	33 e0       	ldi	r19, 0x03	; 3
     746:	1a c0       	rjmp	.+52     	; 0x77c <main+0x8a>
     748:	e6 dc       	rcall	.-1588   	; 0x116 <InitializeAccelerometer>
     74a:	c8 2f       	mov	r28, r24
     74c:	81 11       	cpse	r24, r1
     74e:	03 c0       	rjmp	.+6      	; 0x756 <main+0x64>
     750:	23 e0       	ldi	r18, 0x03	; 3
     752:	34 e0       	ldi	r19, 0x04	; 4
     754:	13 c0       	rjmp	.+38     	; 0x77c <main+0x8a>
     756:	01 e0       	ldi	r16, 0x01	; 1
     758:	23 e0       	ldi	r18, 0x03	; 3
     75a:	44 e0       	ldi	r20, 0x04	; 4
     75c:	60 e0       	ldi	r22, 0x00	; 0
     75e:	80 e0       	ldi	r24, 0x00	; 0
     760:	0e 94 10 16 	call	0x2c20	; 0x2c20 <InitHMC5883LMagnetometer>
     764:	c8 2f       	mov	r28, r24
     766:	81 11       	cpse	r24, r1
     768:	03 c0       	rjmp	.+6      	; 0x770 <main+0x7e>
     76a:	20 e3       	ldi	r18, 0x30	; 48
     76c:	34 e0       	ldi	r19, 0x04	; 4
     76e:	06 c0       	rjmp	.+12     	; 0x77c <main+0x8a>
     770:	19 de       	rcall	.-974    	; 0x3a4 <PerformHandshake>
     772:	c8 2f       	mov	r28, r24
     774:	81 11       	cpse	r24, r1
     776:	0b c0       	rjmp	.+22     	; 0x78e <main+0x9c>
     778:	2c e5       	ldi	r18, 0x5C	; 92
     77a:	34 e0       	ldi	r19, 0x04	; 4
     77c:	3f 93       	push	r19
     77e:	2f 93       	push	r18
     780:	81 e0       	ldi	r24, 0x01	; 1
     782:	8f 93       	push	r24
     784:	27 d0       	rcall	.+78     	; 0x7d4 <SendTrace>
     786:	0f 90       	pop	r0
     788:	0f 90       	pop	r0
     78a:	0f 90       	pop	r0
     78c:	05 c0       	rjmp	.+10     	; 0x798 <main+0xa6>
     78e:	00 d1       	rcall	.+512    	; 0x990 <InitPWM>
     790:	82 de       	rcall	.-764    	; 0x496 <InitializeWatchDogTimer>
     792:	03 df       	rcall	.-506    	; 0x59a <FlyCopter>
     794:	01 c0       	rjmp	.+2      	; 0x798 <main+0xa6>
     796:	c0 e0       	ldi	r28, 0x00	; 0
     798:	8c 2f       	mov	r24, r28
     79a:	90 e0       	ldi	r25, 0x00	; 0
     79c:	cf 91       	pop	r28
     79e:	0f 91       	pop	r16
     7a0:	08 95       	ret

000007a2 <__vector_18>:
     7a2:	1f 92       	push	r1
     7a4:	0f 92       	push	r0
     7a6:	0f b6       	in	r0, 0x3f	; 63
     7a8:	0f 92       	push	r0
     7aa:	11 24       	eor	r1, r1
     7ac:	8f 93       	push	r24
     7ae:	80 91 d9 15 	lds	r24, 0x15D9
     7b2:	80 34       	cpi	r24, 0x40	; 64
     7b4:	29 f4       	brne	.+10     	; 0x7c0 <__vector_18+0x1e>
     7b6:	81 e0       	ldi	r24, 0x01	; 1
     7b8:	80 93 d8 15 	sts	0x15D8, r24
     7bc:	15 bc       	out	0x25, r1	; 37
     7be:	03 c0       	rjmp	.+6      	; 0x7c6 <__vector_18+0x24>
     7c0:	8f 5f       	subi	r24, 0xFF	; 255
     7c2:	80 93 d9 15 	sts	0x15D9, r24
     7c6:	8f 91       	pop	r24
     7c8:	0f 90       	pop	r0
     7ca:	0f be       	out	0x3f, r0	; 63
     7cc:	0f 90       	pop	r0
     7ce:	1f 90       	pop	r1
     7d0:	18 95       	reti

000007d2 <InitTrace>:
     7d2:	08 95       	ret

000007d4 <SendTrace>:
     7d4:	cf 93       	push	r28
     7d6:	df 93       	push	r29
     7d8:	cd b7       	in	r28, 0x3d	; 61
     7da:	de b7       	in	r29, 0x3e	; 62
     7dc:	df 91       	pop	r29
     7de:	cf 91       	pop	r28
     7e0:	08 95       	ret

000007e2 <__vector_16>:
     7e2:	1f 92       	push	r1
     7e4:	0f 92       	push	r0
     7e6:	0f b6       	in	r0, 0x3f	; 63
     7e8:	0f 92       	push	r0
     7ea:	11 24       	eor	r1, r1
     7ec:	8f 93       	push	r24
     7ee:	81 e0       	ldi	r24, 0x01	; 1
     7f0:	80 93 17 16 	sts	0x1617, r24
     7f4:	8f 91       	pop	r24
     7f6:	0f 90       	pop	r0
     7f8:	0f be       	out	0x3f, r0	; 63
     7fa:	0f 90       	pop	r0
     7fc:	1f 90       	pop	r1
     7fe:	18 95       	reti

00000800 <__vector_20>:
     800:	1f 92       	push	r1
     802:	0f 92       	push	r0
     804:	0f b6       	in	r0, 0x3f	; 63
     806:	0f 92       	push	r0
     808:	11 24       	eor	r1, r1
     80a:	0b b6       	in	r0, 0x3b	; 59
     80c:	0f 92       	push	r0
     80e:	2f 93       	push	r18
     810:	3f 93       	push	r19
     812:	4f 93       	push	r20
     814:	5f 93       	push	r21
     816:	6f 93       	push	r22
     818:	7f 93       	push	r23
     81a:	8f 93       	push	r24
     81c:	9f 93       	push	r25
     81e:	af 93       	push	r26
     820:	bf 93       	push	r27
     822:	ef 93       	push	r30
     824:	ff 93       	push	r31
     826:	e0 91 07 16 	lds	r30, 0x1607
     82a:	f0 91 08 16 	lds	r31, 0x1608
     82e:	30 97       	sbiw	r30, 0x00	; 0
     830:	31 f0       	breq	.+12     	; 0x83e <__vector_20+0x3e>
     832:	60 91 13 16 	lds	r22, 0x1613
     836:	70 91 14 16 	lds	r23, 0x1614
     83a:	80 e0       	ldi	r24, 0x00	; 0
     83c:	09 95       	icall
     83e:	ff 91       	pop	r31
     840:	ef 91       	pop	r30
     842:	bf 91       	pop	r27
     844:	af 91       	pop	r26
     846:	9f 91       	pop	r25
     848:	8f 91       	pop	r24
     84a:	7f 91       	pop	r23
     84c:	6f 91       	pop	r22
     84e:	5f 91       	pop	r21
     850:	4f 91       	pop	r20
     852:	3f 91       	pop	r19
     854:	2f 91       	pop	r18
     856:	0f 90       	pop	r0
     858:	0b be       	out	0x3b, r0	; 59
     85a:	0f 90       	pop	r0
     85c:	0f be       	out	0x3f, r0	; 63
     85e:	0f 90       	pop	r0
     860:	1f 90       	pop	r1
     862:	18 95       	reti

00000864 <__vector_28>:
     864:	1f 92       	push	r1
     866:	0f 92       	push	r0
     868:	0f b6       	in	r0, 0x3f	; 63
     86a:	0f 92       	push	r0
     86c:	11 24       	eor	r1, r1
     86e:	0b b6       	in	r0, 0x3b	; 59
     870:	0f 92       	push	r0
     872:	2f 93       	push	r18
     874:	3f 93       	push	r19
     876:	4f 93       	push	r20
     878:	5f 93       	push	r21
     87a:	6f 93       	push	r22
     87c:	7f 93       	push	r23
     87e:	8f 93       	push	r24
     880:	9f 93       	push	r25
     882:	af 93       	push	r26
     884:	bf 93       	push	r27
     886:	ef 93       	push	r30
     888:	ff 93       	push	r31
     88a:	e0 91 0d 16 	lds	r30, 0x160D
     88e:	f0 91 0e 16 	lds	r31, 0x160E
     892:	30 97       	sbiw	r30, 0x00	; 0
     894:	31 f0       	breq	.+12     	; 0x8a2 <__vector_28+0x3e>
     896:	60 91 0b 16 	lds	r22, 0x160B
     89a:	70 91 0c 16 	lds	r23, 0x160C
     89e:	81 e0       	ldi	r24, 0x01	; 1
     8a0:	09 95       	icall
     8a2:	ff 91       	pop	r31
     8a4:	ef 91       	pop	r30
     8a6:	bf 91       	pop	r27
     8a8:	af 91       	pop	r26
     8aa:	9f 91       	pop	r25
     8ac:	8f 91       	pop	r24
     8ae:	7f 91       	pop	r23
     8b0:	6f 91       	pop	r22
     8b2:	5f 91       	pop	r21
     8b4:	4f 91       	pop	r20
     8b6:	3f 91       	pop	r19
     8b8:	2f 91       	pop	r18
     8ba:	0f 90       	pop	r0
     8bc:	0b be       	out	0x3b, r0	; 59
     8be:	0f 90       	pop	r0
     8c0:	0f be       	out	0x3f, r0	; 63
     8c2:	0f 90       	pop	r0
     8c4:	1f 90       	pop	r1
     8c6:	18 95       	reti

000008c8 <__vector_22>:
     8c8:	1f 92       	push	r1
     8ca:	0f 92       	push	r0
     8cc:	0f b6       	in	r0, 0x3f	; 63
     8ce:	0f 92       	push	r0
     8d0:	11 24       	eor	r1, r1
     8d2:	0b b6       	in	r0, 0x3b	; 59
     8d4:	0f 92       	push	r0
     8d6:	2f 93       	push	r18
     8d8:	3f 93       	push	r19
     8da:	4f 93       	push	r20
     8dc:	5f 93       	push	r21
     8de:	6f 93       	push	r22
     8e0:	7f 93       	push	r23
     8e2:	8f 93       	push	r24
     8e4:	9f 93       	push	r25
     8e6:	af 93       	push	r26
     8e8:	bf 93       	push	r27
     8ea:	ef 93       	push	r30
     8ec:	ff 93       	push	r31
     8ee:	e0 91 09 16 	lds	r30, 0x1609
     8f2:	f0 91 0a 16 	lds	r31, 0x160A
     8f6:	30 97       	sbiw	r30, 0x00	; 0
     8f8:	31 f0       	breq	.+12     	; 0x906 <__vector_22+0x3e>
     8fa:	60 91 11 16 	lds	r22, 0x1611
     8fe:	70 91 12 16 	lds	r23, 0x1612
     902:	80 e0       	ldi	r24, 0x00	; 0
     904:	09 95       	icall
     906:	ff 91       	pop	r31
     908:	ef 91       	pop	r30
     90a:	bf 91       	pop	r27
     90c:	af 91       	pop	r26
     90e:	9f 91       	pop	r25
     910:	8f 91       	pop	r24
     912:	7f 91       	pop	r23
     914:	6f 91       	pop	r22
     916:	5f 91       	pop	r21
     918:	4f 91       	pop	r20
     91a:	3f 91       	pop	r19
     91c:	2f 91       	pop	r18
     91e:	0f 90       	pop	r0
     920:	0b be       	out	0x3b, r0	; 59
     922:	0f 90       	pop	r0
     924:	0f be       	out	0x3f, r0	; 63
     926:	0f 90       	pop	r0
     928:	1f 90       	pop	r1
     92a:	18 95       	reti

0000092c <__vector_30>:
     92c:	1f 92       	push	r1
     92e:	0f 92       	push	r0
     930:	0f b6       	in	r0, 0x3f	; 63
     932:	0f 92       	push	r0
     934:	11 24       	eor	r1, r1
     936:	0b b6       	in	r0, 0x3b	; 59
     938:	0f 92       	push	r0
     93a:	2f 93       	push	r18
     93c:	3f 93       	push	r19
     93e:	4f 93       	push	r20
     940:	5f 93       	push	r21
     942:	6f 93       	push	r22
     944:	7f 93       	push	r23
     946:	8f 93       	push	r24
     948:	9f 93       	push	r25
     94a:	af 93       	push	r26
     94c:	bf 93       	push	r27
     94e:	ef 93       	push	r30
     950:	ff 93       	push	r31
     952:	e0 91 0f 16 	lds	r30, 0x160F
     956:	f0 91 10 16 	lds	r31, 0x1610
     95a:	30 97       	sbiw	r30, 0x00	; 0
     95c:	31 f0       	breq	.+12     	; 0x96a <__vector_30+0x3e>
     95e:	60 91 15 16 	lds	r22, 0x1615
     962:	70 91 16 16 	lds	r23, 0x1616
     966:	81 e0       	ldi	r24, 0x01	; 1
     968:	09 95       	icall
     96a:	ff 91       	pop	r31
     96c:	ef 91       	pop	r30
     96e:	bf 91       	pop	r27
     970:	af 91       	pop	r26
     972:	9f 91       	pop	r25
     974:	8f 91       	pop	r24
     976:	7f 91       	pop	r23
     978:	6f 91       	pop	r22
     97a:	5f 91       	pop	r21
     97c:	4f 91       	pop	r20
     97e:	3f 91       	pop	r19
     980:	2f 91       	pop	r18
     982:	0f 90       	pop	r0
     984:	0b be       	out	0x3b, r0	; 59
     986:	0f 90       	pop	r0
     988:	0f be       	out	0x3f, r0	; 63
     98a:	0f 90       	pop	r0
     98c:	1f 90       	pop	r1
     98e:	18 95       	reti

00000990 <InitPWM>:
     990:	80 91 da 15 	lds	r24, 0x15DA
     994:	88 23       	and	r24, r24
     996:	61 f0       	breq	.+24     	; 0x9b0 <InitPWM+0x20>
     998:	86 e7       	ldi	r24, 0x76	; 118
     99a:	94 e0       	ldi	r25, 0x04	; 4
     99c:	9f 93       	push	r25
     99e:	8f 93       	push	r24
     9a0:	84 e0       	ldi	r24, 0x04	; 4
     9a2:	8f 93       	push	r24
     9a4:	17 df       	rcall	.-466    	; 0x7d4 <SendTrace>
     9a6:	0f 90       	pop	r0
     9a8:	0f 90       	pop	r0
     9aa:	0f 90       	pop	r0
     9ac:	80 e0       	ldi	r24, 0x00	; 0
     9ae:	08 95       	ret
     9b0:	8a b1       	in	r24, 0x0a	; 10
     9b2:	80 6f       	ori	r24, 0xF0	; 240
     9b4:	8a b9       	out	0x0a, r24	; 10
     9b6:	81 ef       	ldi	r24, 0xF1	; 241
     9b8:	80 93 80 00 	sts	0x0080, r24
     9bc:	80 93 b0 00 	sts	0x00B0, r24
     9c0:	84 e0       	ldi	r24, 0x04	; 4
     9c2:	80 93 81 00 	sts	0x0081, r24
     9c6:	86 e0       	ldi	r24, 0x06	; 6
     9c8:	80 93 b1 00 	sts	0x00B1, r24
     9cc:	81 e0       	ldi	r24, 0x01	; 1
     9ce:	80 93 6f 00 	sts	0x006F, r24
     9d2:	80 93 70 00 	sts	0x0070, r24
     9d6:	10 92 85 00 	sts	0x0085, r1
     9da:	10 92 84 00 	sts	0x0084, r1
     9de:	10 92 b2 00 	sts	0x00B2, r1
     9e2:	80 93 da 15 	sts	0x15DA, r24
     9e6:	08 95       	ret

000009e8 <PWMChangePulseDuration>:
     9e8:	0f 93       	push	r16
     9ea:	1f 93       	push	r17
     9ec:	cf 93       	push	r28
     9ee:	df 93       	push	r29
     9f0:	1f 92       	push	r1
     9f2:	cd b7       	in	r28, 0x3d	; 61
     9f4:	de b7       	in	r29, 0x3e	; 62
     9f6:	90 91 da 15 	lds	r25, 0x15DA
     9fa:	99 23       	and	r25, r25
     9fc:	f9 f0       	breq	.+62     	; 0xa3c <PWMChangePulseDuration+0x54>
     9fe:	08 2f       	mov	r16, r24
     a00:	10 e0       	ldi	r17, 0x00	; 0
     a02:	1f 92       	push	r1
     a04:	6f 93       	push	r22
     a06:	1f 92       	push	r1
     a08:	8f 93       	push	r24
     a0a:	80 e9       	ldi	r24, 0x90	; 144
     a0c:	94 e0       	ldi	r25, 0x04	; 4
     a0e:	9f 93       	push	r25
     a10:	8f 93       	push	r24
     a12:	84 e0       	ldi	r24, 0x04	; 4
     a14:	8f 93       	push	r24
     a16:	69 83       	std	Y+1, r22	; 0x01
     a18:	dd de       	rcall	.-582    	; 0x7d4 <SendTrace>
     a1a:	d8 01       	movw	r26, r16
     a1c:	a5 52       	subi	r26, 0x25	; 37
     a1e:	ba 4e       	sbci	r27, 0xEA	; 234
     a20:	69 81       	ldd	r22, Y+1	; 0x01
     a22:	0f b6       	in	r0, 0x3f	; 63
     a24:	f8 94       	cli
     a26:	de bf       	out	0x3e, r29	; 62
     a28:	0f be       	out	0x3f, r0	; 63
     a2a:	cd bf       	out	0x3d, r28	; 61
     a2c:	61 31       	cpi	r22, 0x11	; 17
     a2e:	08 f0       	brcs	.+2      	; 0xa32 <PWMChangePulseDuration+0x4a>
     a30:	60 e1       	ldi	r22, 0x10	; 16
     a32:	80 ef       	ldi	r24, 0xF0	; 240
     a34:	86 1b       	sub	r24, r22
     a36:	8c 93       	st	X, r24
     a38:	81 e0       	ldi	r24, 0x01	; 1
     a3a:	01 c0       	rjmp	.+2      	; 0xa3e <PWMChangePulseDuration+0x56>
     a3c:	80 e0       	ldi	r24, 0x00	; 0
     a3e:	0f 90       	pop	r0
     a40:	df 91       	pop	r29
     a42:	cf 91       	pop	r28
     a44:	1f 91       	pop	r17
     a46:	0f 91       	pop	r16
     a48:	08 95       	ret

00000a4a <__vector_15>:
     a4a:	1f 92       	push	r1
     a4c:	0f 92       	push	r0
     a4e:	0f b6       	in	r0, 0x3f	; 63
     a50:	0f 92       	push	r0
     a52:	11 24       	eor	r1, r1
     a54:	8f 93       	push	r24
     a56:	9f 93       	push	r25
     a58:	80 91 da 15 	lds	r24, 0x15DA
     a5c:	88 23       	and	r24, r24
     a5e:	71 f0       	breq	.+28     	; 0xa7c <__vector_15+0x32>
     a60:	80 91 db 15 	lds	r24, 0x15DB
     a64:	90 e0       	ldi	r25, 0x00	; 0
     a66:	90 93 89 00 	sts	0x0089, r25
     a6a:	80 93 88 00 	sts	0x0088, r24
     a6e:	80 91 dc 15 	lds	r24, 0x15DC
     a72:	90 e0       	ldi	r25, 0x00	; 0
     a74:	90 93 8b 00 	sts	0x008B, r25
     a78:	80 93 8a 00 	sts	0x008A, r24
     a7c:	9f 91       	pop	r25
     a7e:	8f 91       	pop	r24
     a80:	0f 90       	pop	r0
     a82:	0f be       	out	0x3f, r0	; 63
     a84:	0f 90       	pop	r0
     a86:	1f 90       	pop	r1
     a88:	18 95       	reti

00000a8a <__vector_11>:
     a8a:	1f 92       	push	r1
     a8c:	0f 92       	push	r0
     a8e:	0f b6       	in	r0, 0x3f	; 63
     a90:	0f 92       	push	r0
     a92:	11 24       	eor	r1, r1
     a94:	8f 93       	push	r24
     a96:	80 91 da 15 	lds	r24, 0x15DA
     a9a:	88 23       	and	r24, r24
     a9c:	41 f0       	breq	.+16     	; 0xaae <__vector_11+0x24>
     a9e:	80 91 dd 15 	lds	r24, 0x15DD
     aa2:	80 93 b3 00 	sts	0x00B3, r24
     aa6:	80 91 de 15 	lds	r24, 0x15DE
     aaa:	80 93 b4 00 	sts	0x00B4, r24
     aae:	8f 91       	pop	r24
     ab0:	0f 90       	pop	r0
     ab2:	0f be       	out	0x3f, r0	; 63
     ab4:	0f 90       	pop	r0
     ab6:	1f 90       	pop	r1
     ab8:	18 95       	reti

00000aba <TCFlushFIFO>:
     aba:	cf 93       	push	r28
     abc:	df 93       	push	r29
     abe:	1f 92       	push	r1
     ac0:	cd b7       	in	r28, 0x3d	; 61
     ac2:	de b7       	in	r29, 0x3e	; 62
     ac4:	81 11       	cpse	r24, r1
     ac6:	02 c0       	rjmp	.+4      	; 0xacc <TCFlushFIFO+0x12>
     ac8:	82 ee       	ldi	r24, 0xE2	; 226
     aca:	01 c0       	rjmp	.+2      	; 0xace <TCFlushFIFO+0x14>
     acc:	81 ee       	ldi	r24, 0xE1	; 225
     ace:	89 83       	std	Y+1, r24	; 0x01
     ad0:	d0 d3       	rcall	.+1952   	; 0x1272 <SPIBeginTransfer>
     ad2:	21 e0       	ldi	r18, 0x01	; 1
     ad4:	30 e0       	ldi	r19, 0x00	; 0
     ad6:	40 e0       	ldi	r20, 0x00	; 0
     ad8:	50 e0       	ldi	r21, 0x00	; 0
     ada:	be 01       	movw	r22, r28
     adc:	6f 5f       	subi	r22, 0xFF	; 255
     ade:	7f 4f       	sbci	r23, 0xFF	; 255
     ae0:	cb 01       	movw	r24, r22
     ae2:	cb d3       	rcall	.+1942   	; 0x127a <SPIMasterTransfer>
     ae4:	c8 d3       	rcall	.+1936   	; 0x1276 <SPIEndTransfer>
     ae6:	0f 90       	pop	r0
     ae8:	df 91       	pop	r29
     aea:	cf 91       	pop	r28
     aec:	08 95       	ret

00000aee <TCTransmit>:
     aee:	cf 92       	push	r12
     af0:	df 92       	push	r13
     af2:	ef 92       	push	r14
     af4:	ff 92       	push	r15
     af6:	0f 93       	push	r16
     af8:	1f 93       	push	r17
     afa:	cf 93       	push	r28
     afc:	df 93       	push	r29
     afe:	cd b7       	in	r28, 0x3d	; 61
     b00:	de b7       	in	r29, 0x3e	; 62
     b02:	a1 97       	sbiw	r28, 0x21	; 33
     b04:	0f b6       	in	r0, 0x3f	; 63
     b06:	f8 94       	cli
     b08:	de bf       	out	0x3e, r29	; 62
     b0a:	0f be       	out	0x3f, r0	; 63
     b0c:	cd bf       	out	0x3d, r28	; 61
     b0e:	8c 01       	movw	r16, r24
     b10:	7b 01       	movw	r14, r22
     b12:	d4 2e       	mov	r13, r20
     b14:	fc 01       	movw	r30, r24
     b16:	80 81       	ld	r24, Z
     b18:	80 3a       	cpi	r24, 0xA0	; 160
     b1a:	99 f4       	brne	.+38     	; 0xb42 <TCTransmit+0x54>
     b1c:	80 91 38 16 	lds	r24, 0x1638
     b20:	81 11       	cpse	r24, r1
     b22:	0f c0       	rjmp	.+30     	; 0xb42 <TCTransmit+0x54>
     b24:	ff e1       	ldi	r31, 0x1F	; 31
     b26:	f4 17       	cp	r31, r20
     b28:	60 f0       	brcs	.+24     	; 0xb42 <TCTransmit+0x54>
     b2a:	84 2f       	mov	r24, r20
     b2c:	e1 e0       	ldi	r30, 0x01	; 1
     b2e:	f0 e0       	ldi	r31, 0x00	; 0
     b30:	ec 0f       	add	r30, r28
     b32:	fd 1f       	adc	r31, r29
     b34:	e8 0f       	add	r30, r24
     b36:	f1 1d       	adc	r31, r1
     b38:	10 82       	st	Z, r1
     b3a:	8f 5f       	subi	r24, 0xFF	; 255
     b3c:	80 32       	cpi	r24, 0x20	; 32
     b3e:	b1 f7       	brne	.-20     	; 0xb2c <TCTransmit+0x3e>
     b40:	02 c0       	rjmp	.+4      	; 0xb46 <TCTransmit+0x58>
     b42:	c1 2c       	mov	r12, r1
     b44:	02 c0       	rjmp	.+4      	; 0xb4a <TCTransmit+0x5c>
     b46:	cc 24       	eor	r12, r12
     b48:	c3 94       	inc	r12
     b4a:	93 d3       	rcall	.+1830   	; 0x1272 <SPIBeginTransfer>
     b4c:	21 e0       	ldi	r18, 0x01	; 1
     b4e:	30 e0       	ldi	r19, 0x00	; 0
     b50:	40 e0       	ldi	r20, 0x00	; 0
     b52:	50 e0       	ldi	r21, 0x00	; 0
     b54:	b8 01       	movw	r22, r16
     b56:	c8 01       	movw	r24, r16
     b58:	90 d3       	rcall	.+1824   	; 0x127a <SPIMasterTransfer>
     b5a:	81 11       	cpse	r24, r1
     b5c:	0c c0       	rjmp	.+24     	; 0xb76 <TCTransmit+0x88>
     b5e:	8c ea       	ldi	r24, 0xAC	; 172
     b60:	94 e0       	ldi	r25, 0x04	; 4
     b62:	9f 93       	push	r25
     b64:	8f 93       	push	r24
     b66:	81 e0       	ldi	r24, 0x01	; 1
     b68:	8f 93       	push	r24
     b6a:	34 de       	rcall	.-920    	; 0x7d4 <SendTrace>
     b6c:	0f 90       	pop	r0
     b6e:	0f 90       	pop	r0
     b70:	0f 90       	pop	r0
     b72:	80 e0       	ldi	r24, 0x00	; 0
     b74:	2d c0       	rjmp	.+90     	; 0xbd0 <TCTransmit+0xe2>
     b76:	2d 2d       	mov	r18, r13
     b78:	30 e0       	ldi	r19, 0x00	; 0
     b7a:	40 e0       	ldi	r20, 0x00	; 0
     b7c:	50 e0       	ldi	r21, 0x00	; 0
     b7e:	be 01       	movw	r22, r28
     b80:	6f 5f       	subi	r22, 0xFF	; 255
     b82:	7f 4f       	sbci	r23, 0xFF	; 255
     b84:	c7 01       	movw	r24, r14
     b86:	79 d3       	rcall	.+1778   	; 0x127a <SPIMasterTransfer>
     b88:	88 23       	and	r24, r24
     b8a:	49 f3       	breq	.-46     	; 0xb5e <TCTransmit+0x70>
     b8c:	cc 20       	and	r12, r12
     b8e:	01 f1       	breq	.+64     	; 0xbd0 <TCTransmit+0xe2>
     b90:	4d 2d       	mov	r20, r13
     b92:	50 e0       	ldi	r21, 0x00	; 0
     b94:	81 e0       	ldi	r24, 0x01	; 1
     b96:	90 e0       	ldi	r25, 0x00	; 0
     b98:	8c 0f       	add	r24, r28
     b9a:	9d 1f       	adc	r25, r29
     b9c:	84 0f       	add	r24, r20
     b9e:	95 1f       	adc	r25, r21
     ba0:	20 e2       	ldi	r18, 0x20	; 32
     ba2:	30 e0       	ldi	r19, 0x00	; 0
     ba4:	24 1b       	sub	r18, r20
     ba6:	35 0b       	sbc	r19, r21
     ba8:	44 27       	eor	r20, r20
     baa:	37 fd       	sbrc	r19, 7
     bac:	40 95       	com	r20
     bae:	54 2f       	mov	r21, r20
     bb0:	bc 01       	movw	r22, r24
     bb2:	63 d3       	rcall	.+1734   	; 0x127a <SPIMasterTransfer>
     bb4:	81 11       	cpse	r24, r1
     bb6:	0c c0       	rjmp	.+24     	; 0xbd0 <TCTransmit+0xe2>
     bb8:	2c ea       	ldi	r18, 0xAC	; 172
     bba:	34 e0       	ldi	r19, 0x04	; 4
     bbc:	3f 93       	push	r19
     bbe:	2f 93       	push	r18
     bc0:	91 e0       	ldi	r25, 0x01	; 1
     bc2:	9f 93       	push	r25
     bc4:	89 a3       	std	Y+33, r24	; 0x21
     bc6:	06 de       	rcall	.-1012   	; 0x7d4 <SendTrace>
     bc8:	0f 90       	pop	r0
     bca:	0f 90       	pop	r0
     bcc:	0f 90       	pop	r0
     bce:	89 a1       	ldd	r24, Y+33	; 0x21
     bd0:	89 a3       	std	Y+33, r24	; 0x21
     bd2:	51 d3       	rcall	.+1698   	; 0x1276 <SPIEndTransfer>
     bd4:	89 a1       	ldd	r24, Y+33	; 0x21
     bd6:	a1 96       	adiw	r28, 0x21	; 33
     bd8:	0f b6       	in	r0, 0x3f	; 63
     bda:	f8 94       	cli
     bdc:	de bf       	out	0x3e, r29	; 62
     bde:	0f be       	out	0x3f, r0	; 63
     be0:	cd bf       	out	0x3d, r28	; 61
     be2:	df 91       	pop	r29
     be4:	cf 91       	pop	r28
     be6:	1f 91       	pop	r17
     be8:	0f 91       	pop	r16
     bea:	ff 90       	pop	r15
     bec:	ef 90       	pop	r14
     bee:	df 90       	pop	r13
     bf0:	cf 90       	pop	r12
     bf2:	08 95       	ret

00000bf4 <TCTransmitAckPayload>:
     bf4:	cf 93       	push	r28
     bf6:	df 93       	push	r29
     bf8:	1f 92       	push	r1
     bfa:	cd b7       	in	r28, 0x3d	; 61
     bfc:	de b7       	in	r29, 0x3e	; 62
     bfe:	20 91 eb 15 	lds	r18, 0x15EB
     c02:	21 11       	cpse	r18, r1
     c04:	03 c0       	rjmp	.+6      	; 0xc0c <TCTransmitAckPayload+0x18>
     c06:	89 ec       	ldi	r24, 0xC9	; 201
     c08:	94 e0       	ldi	r25, 0x04	; 4
     c0a:	06 c0       	rjmp	.+12     	; 0xc18 <TCTransmitAckPayload+0x24>
     c0c:	20 91 38 16 	lds	r18, 0x1638
     c10:	21 11       	cpse	r18, r1
     c12:	0c c0       	rjmp	.+24     	; 0xc2c <TCTransmitAckPayload+0x38>
     c14:	8c ef       	ldi	r24, 0xFC	; 252
     c16:	94 e0       	ldi	r25, 0x04	; 4
     c18:	9f 93       	push	r25
     c1a:	8f 93       	push	r24
     c1c:	81 e0       	ldi	r24, 0x01	; 1
     c1e:	8f 93       	push	r24
     c20:	d9 dd       	rcall	.-1102   	; 0x7d4 <SendTrace>
     c22:	0f 90       	pop	r0
     c24:	0f 90       	pop	r0
     c26:	0f 90       	pop	r0
     c28:	80 e0       	ldi	r24, 0x00	; 0
     c2a:	08 c0       	rjmp	.+16     	; 0xc3c <TCTransmitAckPayload+0x48>
     c2c:	28 ea       	ldi	r18, 0xA8	; 168
     c2e:	29 83       	std	Y+1, r18	; 0x01
     c30:	fb 01       	movw	r30, r22
     c32:	40 81       	ld	r20, Z
     c34:	bc 01       	movw	r22, r24
     c36:	ce 01       	movw	r24, r28
     c38:	01 96       	adiw	r24, 0x01	; 1
     c3a:	59 df       	rcall	.-334    	; 0xaee <TCTransmit>
     c3c:	0f 90       	pop	r0
     c3e:	df 91       	pop	r29
     c40:	cf 91       	pop	r28
     c42:	08 95       	ret

00000c44 <TCReceive>:
     c44:	ef 92       	push	r14
     c46:	ff 92       	push	r15
     c48:	1f 93       	push	r17
     c4a:	cf 93       	push	r28
     c4c:	df 93       	push	r29
     c4e:	00 d0       	rcall	.+0      	; 0xc50 <TCReceive+0xc>
     c50:	cd b7       	in	r28, 0x3d	; 61
     c52:	de b7       	in	r29, 0x3e	; 62
     c54:	7b 01       	movw	r14, r22
     c56:	14 2f       	mov	r17, r20
     c58:	8a 83       	std	Y+2, r24	; 0x02
     c5a:	99 83       	std	Y+1, r25	; 0x01
     c5c:	0a d3       	rcall	.+1556   	; 0x1272 <SPIBeginTransfer>
     c5e:	21 e0       	ldi	r18, 0x01	; 1
     c60:	30 e0       	ldi	r19, 0x00	; 0
     c62:	40 e0       	ldi	r20, 0x00	; 0
     c64:	50 e0       	ldi	r21, 0x00	; 0
     c66:	8a 81       	ldd	r24, Y+2	; 0x02
     c68:	99 81       	ldd	r25, Y+1	; 0x01
     c6a:	bc 01       	movw	r22, r24
     c6c:	06 d3       	rcall	.+1548   	; 0x127a <SPIMasterTransfer>
     c6e:	88 23       	and	r24, r24
     c70:	51 f0       	breq	.+20     	; 0xc86 <TCReceive+0x42>
     c72:	21 2f       	mov	r18, r17
     c74:	30 e0       	ldi	r19, 0x00	; 0
     c76:	40 e0       	ldi	r20, 0x00	; 0
     c78:	50 e0       	ldi	r21, 0x00	; 0
     c7a:	b7 01       	movw	r22, r14
     c7c:	88 e1       	ldi	r24, 0x18	; 24
     c7e:	96 e1       	ldi	r25, 0x16	; 22
     c80:	fc d2       	rcall	.+1528   	; 0x127a <SPIMasterTransfer>
     c82:	81 11       	cpse	r24, r1
     c84:	0c c0       	rjmp	.+24     	; 0xc9e <TCReceive+0x5a>
     c86:	23 e3       	ldi	r18, 0x33	; 51
     c88:	35 e0       	ldi	r19, 0x05	; 5
     c8a:	3f 93       	push	r19
     c8c:	2f 93       	push	r18
     c8e:	91 e0       	ldi	r25, 0x01	; 1
     c90:	9f 93       	push	r25
     c92:	8a 83       	std	Y+2, r24	; 0x02
     c94:	9f dd       	rcall	.-1218   	; 0x7d4 <SendTrace>
     c96:	0f 90       	pop	r0
     c98:	0f 90       	pop	r0
     c9a:	0f 90       	pop	r0
     c9c:	8a 81       	ldd	r24, Y+2	; 0x02
     c9e:	8a 83       	std	Y+2, r24	; 0x02
     ca0:	ea d2       	rcall	.+1492   	; 0x1276 <SPIEndTransfer>
     ca2:	8a 81       	ldd	r24, Y+2	; 0x02
     ca4:	0f 90       	pop	r0
     ca6:	0f 90       	pop	r0
     ca8:	df 91       	pop	r29
     caa:	cf 91       	pop	r28
     cac:	1f 91       	pop	r17
     cae:	ff 90       	pop	r15
     cb0:	ef 90       	pop	r14
     cb2:	08 95       	ret

00000cb4 <TCGetReceivedPayloadLength>:
     cb4:	0f 93       	push	r16
     cb6:	1f 93       	push	r17
     cb8:	cf 93       	push	r28
     cba:	df 93       	push	r29
     cbc:	1f 92       	push	r1
     cbe:	cd b7       	in	r28, 0x3d	; 61
     cc0:	de b7       	in	r29, 0x3e	; 62
     cc2:	8c 01       	movw	r16, r24
     cc4:	80 91 eb 15 	lds	r24, 0x15EB
     cc8:	81 11       	cpse	r24, r1
     cca:	03 c0       	rjmp	.+6      	; 0xcd2 <TCGetReceivedPayloadLength+0x1e>
     ccc:	8f e4       	ldi	r24, 0x4F	; 79
     cce:	95 e0       	ldi	r25, 0x05	; 5
     cd0:	19 c0       	rjmp	.+50     	; 0xd04 <TCGetReceivedPayloadLength+0x50>
     cd2:	f8 01       	movw	r30, r16
     cd4:	10 82       	st	Z, r1
     cd6:	80 91 38 16 	lds	r24, 0x1638
     cda:	88 23       	and	r24, r24
     cdc:	e1 f0       	breq	.+56     	; 0xd16 <TCGetReceivedPayloadLength+0x62>
     cde:	80 e6       	ldi	r24, 0x60	; 96
     ce0:	89 83       	std	Y+1, r24	; 0x01
     ce2:	41 e0       	ldi	r20, 0x01	; 1
     ce4:	b8 01       	movw	r22, r16
     ce6:	ce 01       	movw	r24, r28
     ce8:	01 96       	adiw	r24, 0x01	; 1
     cea:	ac df       	rcall	.-168    	; 0xc44 <TCReceive>
     cec:	88 23       	and	r24, r24
     cee:	21 f0       	breq	.+8      	; 0xcf8 <TCGetReceivedPayloadLength+0x44>
     cf0:	f8 01       	movw	r30, r16
     cf2:	80 81       	ld	r24, Z
     cf4:	81 32       	cpi	r24, 0x21	; 33
     cf6:	90 f0       	brcs	.+36     	; 0xd1c <TCGetReceivedPayloadLength+0x68>
     cf8:	f8 01       	movw	r30, r16
     cfa:	10 82       	st	Z, r1
     cfc:	80 e0       	ldi	r24, 0x00	; 0
     cfe:	dd de       	rcall	.-582    	; 0xaba <TCFlushFIFO>
     d00:	88 e8       	ldi	r24, 0x88	; 136
     d02:	95 e0       	ldi	r25, 0x05	; 5
     d04:	9f 93       	push	r25
     d06:	8f 93       	push	r24
     d08:	81 e0       	ldi	r24, 0x01	; 1
     d0a:	8f 93       	push	r24
     d0c:	63 dd       	rcall	.-1338   	; 0x7d4 <SendTrace>
     d0e:	0f 90       	pop	r0
     d10:	0f 90       	pop	r0
     d12:	0f 90       	pop	r0
     d14:	03 c0       	rjmp	.+6      	; 0xd1c <TCGetReceivedPayloadLength+0x68>
     d16:	80 e2       	ldi	r24, 0x20	; 32
     d18:	f8 01       	movw	r30, r16
     d1a:	80 83       	st	Z, r24
     d1c:	0f 90       	pop	r0
     d1e:	df 91       	pop	r29
     d20:	cf 91       	pop	r28
     d22:	1f 91       	pop	r17
     d24:	0f 91       	pop	r16
     d26:	08 95       	ret

00000d28 <TCReceivePayload>:
     d28:	ef 92       	push	r14
     d2a:	ff 92       	push	r15
     d2c:	0f 93       	push	r16
     d2e:	1f 93       	push	r17
     d30:	cf 93       	push	r28
     d32:	df 93       	push	r29
     d34:	00 d0       	rcall	.+0      	; 0xd36 <TCReceivePayload+0xe>
     d36:	cd b7       	in	r28, 0x3d	; 61
     d38:	de b7       	in	r29, 0x3e	; 62
     d3a:	7c 01       	movw	r14, r24
     d3c:	8b 01       	movw	r16, r22
     d3e:	80 91 eb 15 	lds	r24, 0x15EB
     d42:	81 11       	cpse	r24, r1
     d44:	0c c0       	rjmp	.+24     	; 0xd5e <TCReceivePayload+0x36>
     d46:	8c ec       	ldi	r24, 0xCC	; 204
     d48:	95 e0       	ldi	r25, 0x05	; 5
     d4a:	9f 93       	push	r25
     d4c:	8f 93       	push	r24
     d4e:	81 e0       	ldi	r24, 0x01	; 1
     d50:	8f 93       	push	r24
     d52:	40 dd       	rcall	.-1408   	; 0x7d4 <SendTrace>
     d54:	0f 90       	pop	r0
     d56:	0f 90       	pop	r0
     d58:	0f 90       	pop	r0
     d5a:	80 e0       	ldi	r24, 0x00	; 0
     d5c:	27 c0       	rjmp	.+78     	; 0xdac <TCReceivePayload+0x84>
     d5e:	1a 82       	std	Y+2, r1	; 0x02
     d60:	ce 01       	movw	r24, r28
     d62:	02 96       	adiw	r24, 0x02	; 2
     d64:	a7 df       	rcall	.-178    	; 0xcb4 <TCGetReceivedPayloadLength>
     d66:	f8 01       	movw	r30, r16
     d68:	20 81       	ld	r18, Z
     d6a:	2f 73       	andi	r18, 0x3F	; 63
     d6c:	30 e0       	ldi	r19, 0x00	; 0
     d6e:	8a 81       	ldd	r24, Y+2	; 0x02
     d70:	8f 73       	andi	r24, 0x3F	; 63
     d72:	90 e0       	ldi	r25, 0x00	; 0
     d74:	82 17       	cp	r24, r18
     d76:	93 07       	cpc	r25, r19
     d78:	8c f4       	brge	.+34     	; 0xd9c <TCReceivePayload+0x74>
     d7a:	2b ef       	ldi	r18, 0xFB	; 251
     d7c:	35 e0       	ldi	r19, 0x05	; 5
     d7e:	3f 93       	push	r19
     d80:	2f 93       	push	r18
     d82:	84 e0       	ldi	r24, 0x04	; 4
     d84:	8f 93       	push	r24
     d86:	26 dd       	rcall	.-1460   	; 0x7d4 <SendTrace>
     d88:	9a 81       	ldd	r25, Y+2	; 0x02
     d8a:	9f 73       	andi	r25, 0x3F	; 63
     d8c:	f8 01       	movw	r30, r16
     d8e:	80 81       	ld	r24, Z
     d90:	80 7c       	andi	r24, 0xC0	; 192
     d92:	89 2b       	or	r24, r25
     d94:	80 83       	st	Z, r24
     d96:	0f 90       	pop	r0
     d98:	0f 90       	pop	r0
     d9a:	0f 90       	pop	r0
     d9c:	81 e6       	ldi	r24, 0x61	; 97
     d9e:	89 83       	std	Y+1, r24	; 0x01
     da0:	f8 01       	movw	r30, r16
     da2:	40 81       	ld	r20, Z
     da4:	b7 01       	movw	r22, r14
     da6:	ce 01       	movw	r24, r28
     da8:	01 96       	adiw	r24, 0x01	; 1
     daa:	4c df       	rcall	.-360    	; 0xc44 <TCReceive>
     dac:	0f 90       	pop	r0
     dae:	0f 90       	pop	r0
     db0:	df 91       	pop	r29
     db2:	cf 91       	pop	r28
     db4:	1f 91       	pop	r17
     db6:	0f 91       	pop	r16
     db8:	ff 90       	pop	r15
     dba:	ef 90       	pop	r14
     dbc:	08 95       	ret

00000dbe <TCReadReg>:
     dbe:	cf 93       	push	r28
     dc0:	df 93       	push	r29
     dc2:	1f 92       	push	r1
     dc4:	cd b7       	in	r28, 0x3d	; 61
     dc6:	de b7       	in	r29, 0x3e	; 62
     dc8:	89 83       	std	Y+1, r24	; 0x01
     dca:	ce 01       	movw	r24, r28
     dcc:	01 96       	adiw	r24, 0x01	; 1
     dce:	3a df       	rcall	.-396    	; 0xc44 <TCReceive>
     dd0:	0f 90       	pop	r0
     dd2:	df 91       	pop	r29
     dd4:	cf 91       	pop	r28
     dd6:	08 95       	ret

00000dd8 <TCWriteReg>:
     dd8:	0f 93       	push	r16
     dda:	1f 93       	push	r17
     ddc:	cf 93       	push	r28
     dde:	df 93       	push	r29
     de0:	00 d0       	rcall	.+0      	; 0xde2 <TCWriteReg+0xa>
     de2:	cd b7       	in	r28, 0x3d	; 61
     de4:	de b7       	in	r29, 0x3e	; 62
     de6:	18 2f       	mov	r17, r24
     de8:	19 82       	std	Y+1, r1	; 0x01
     dea:	80 62       	ori	r24, 0x20	; 32
     dec:	8a 83       	std	Y+2, r24	; 0x02
     dee:	ce 01       	movw	r24, r28
     df0:	02 96       	adiw	r24, 0x02	; 2
     df2:	7d de       	rcall	.-774    	; 0xaee <TCTransmit>
     df4:	08 2f       	mov	r16, r24
     df6:	41 e0       	ldi	r20, 0x01	; 1
     df8:	be 01       	movw	r22, r28
     dfa:	6f 5f       	subi	r22, 0xFF	; 255
     dfc:	7f 4f       	sbci	r23, 0xFF	; 255
     dfe:	81 2f       	mov	r24, r17
     e00:	de df       	rcall	.-68     	; 0xdbe <TCReadReg>
     e02:	89 81       	ldd	r24, Y+1	; 0x01
     e04:	1f 92       	push	r1
     e06:	8f 93       	push	r24
     e08:	1f 92       	push	r1
     e0a:	1f 93       	push	r17
     e0c:	29 e1       	ldi	r18, 0x19	; 25
     e0e:	37 e0       	ldi	r19, 0x07	; 7
     e10:	3f 93       	push	r19
     e12:	2f 93       	push	r18
     e14:	84 e0       	ldi	r24, 0x04	; 4
     e16:	8f 93       	push	r24
     e18:	dd dc       	rcall	.-1606   	; 0x7d4 <SendTrace>
     e1a:	0f b6       	in	r0, 0x3f	; 63
     e1c:	f8 94       	cli
     e1e:	de bf       	out	0x3e, r29	; 62
     e20:	0f be       	out	0x3f, r0	; 63
     e22:	cd bf       	out	0x3d, r28	; 61
     e24:	80 2f       	mov	r24, r16
     e26:	0f 90       	pop	r0
     e28:	0f 90       	pop	r0
     e2a:	df 91       	pop	r29
     e2c:	cf 91       	pop	r28
     e2e:	1f 91       	pop	r17
     e30:	0f 91       	pop	r16
     e32:	08 95       	ret

00000e34 <InitTransceiver>:
     e34:	ef 92       	push	r14
     e36:	ff 92       	push	r15
     e38:	0f 93       	push	r16
     e3a:	1f 93       	push	r17
     e3c:	cf 93       	push	r28
     e3e:	df 93       	push	r29
     e40:	cd b7       	in	r28, 0x3d	; 61
     e42:	de b7       	in	r29, 0x3e	; 62
     e44:	28 97       	sbiw	r28, 0x08	; 8
     e46:	0f b6       	in	r0, 0x3f	; 63
     e48:	f8 94       	cli
     e4a:	de bf       	out	0x3e, r29	; 62
     e4c:	0f be       	out	0x3f, r0	; 63
     e4e:	cd bf       	out	0x3d, r28	; 61
     e50:	7c 01       	movw	r14, r24
     e52:	00 97       	sbiw	r24, 0x00	; 0
     e54:	19 f4       	brne	.+6      	; 0xe5c <InitTransceiver+0x28>
     e56:	8a e3       	ldi	r24, 0x3A	; 58
     e58:	97 e0       	ldi	r25, 0x07	; 7
     e5a:	06 c0       	rjmp	.+12     	; 0xe68 <InitTransceiver+0x34>
     e5c:	80 91 eb 15 	lds	r24, 0x15EB
     e60:	88 23       	and	r24, r24
     e62:	59 f0       	breq	.+22     	; 0xe7a <InitTransceiver+0x46>
     e64:	82 e7       	ldi	r24, 0x72	; 114
     e66:	97 e0       	ldi	r25, 0x07	; 7
     e68:	9f 93       	push	r25
     e6a:	8f 93       	push	r24
     e6c:	81 e0       	ldi	r24, 0x01	; 1
     e6e:	8f 93       	push	r24
     e70:	b1 dc       	rcall	.-1694   	; 0x7d4 <SendTrace>
     e72:	0f 90       	pop	r0
     e74:	0f 90       	pop	r0
     e76:	0f 90       	pop	r0
     e78:	1f c1       	rjmp	.+574    	; 0x10b8 <InitTransceiver+0x284>
     e7a:	e8 e1       	ldi	r30, 0x18	; 24
     e7c:	f6 e1       	ldi	r31, 0x16	; 22
     e7e:	8f ef       	ldi	r24, 0xFF	; 255
     e80:	81 93       	st	Z+, r24
     e82:	26 e1       	ldi	r18, 0x16	; 22
     e84:	e8 33       	cpi	r30, 0x38	; 56
     e86:	f2 07       	cpc	r31, r18
     e88:	d9 f7       	brne	.-10     	; 0xe80 <InitTransceiver+0x4c>
     e8a:	3f 9a       	sbi	0x07, 7	; 7
     e8c:	f7 01       	movw	r30, r14
     e8e:	84 89       	ldd	r24, Z+20	; 0x14
     e90:	95 89       	ldd	r25, Z+21	; 0x15
     e92:	89 2b       	or	r24, r25
     e94:	d9 f5       	brne	.+118    	; 0xf0c <InitTransceiver+0xd8>
     e96:	47 98       	cbi	0x08, 7	; 8
     e98:	ff ef       	ldi	r31, 0xFF	; 255
     e9a:	20 e7       	ldi	r18, 0x70	; 112
     e9c:	82 e0       	ldi	r24, 0x02	; 2
     e9e:	f1 50       	subi	r31, 0x01	; 1
     ea0:	20 40       	sbci	r18, 0x00	; 0
     ea2:	80 40       	sbci	r24, 0x00	; 0
     ea4:	e1 f7       	brne	.-8      	; 0xe9e <InitTransceiver+0x6a>
     ea6:	00 c0       	rjmp	.+0      	; 0xea8 <InitTransceiver+0x74>
     ea8:	00 00       	nop
     eaa:	f7 01       	movw	r30, r14
     eac:	80 a1       	ldd	r24, Z+32	; 0x20
     eae:	80 93 38 16 	sts	0x1638, r24
     eb2:	84 89       	ldd	r24, Z+20	; 0x14
     eb4:	95 89       	ldd	r25, Z+21	; 0x15
     eb6:	90 93 ea 15 	sts	0x15EA, r25
     eba:	80 93 e9 15 	sts	0x15E9, r24
     ebe:	86 89       	ldd	r24, Z+22	; 0x16
     ec0:	97 89       	ldd	r25, Z+23	; 0x17
     ec2:	90 93 e8 15 	sts	0x15E8, r25
     ec6:	80 93 e7 15 	sts	0x15E7, r24
     eca:	80 8d       	ldd	r24, Z+24	; 0x18
     ecc:	91 8d       	ldd	r25, Z+25	; 0x19
     ece:	90 93 e6 15 	sts	0x15E6, r25
     ed2:	80 93 e5 15 	sts	0x15E5, r24
     ed6:	82 8d       	ldd	r24, Z+26	; 0x1a
     ed8:	93 8d       	ldd	r25, Z+27	; 0x1b
     eda:	90 93 e4 15 	sts	0x15E4, r25
     ede:	80 93 e3 15 	sts	0x15E3, r24
     ee2:	84 8d       	ldd	r24, Z+28	; 0x1c
     ee4:	95 8d       	ldd	r25, Z+29	; 0x1d
     ee6:	90 93 e2 15 	sts	0x15E2, r25
     eea:	80 93 e1 15 	sts	0x15E1, r24
     eee:	86 8d       	ldd	r24, Z+30	; 0x1e
     ef0:	97 8d       	ldd	r25, Z+31	; 0x1f
     ef2:	90 93 e0 15 	sts	0x15E0, r25
     ef6:	80 93 df 15 	sts	0x15DF, r24
     efa:	6d d1       	rcall	.+730    	; 0x11d6 <TCInitTransfer>
     efc:	18 86       	std	Y+8, r1	; 0x08
     efe:	f7 01       	movw	r30, r14
     f00:	80 81       	ld	r24, Z
     f02:	81 11       	cpse	r24, r1
     f04:	19 c0       	rjmp	.+50     	; 0xf38 <InitTransceiver+0x104>
     f06:	81 e0       	ldi	r24, 0x01	; 1
     f08:	88 87       	std	Y+8, r24	; 0x08
     f0a:	16 c0       	rjmp	.+44     	; 0xf38 <InitTransceiver+0x104>
     f0c:	f7 01       	movw	r30, r14
     f0e:	80 8d       	ldd	r24, Z+24	; 0x18
     f10:	91 8d       	ldd	r25, Z+25	; 0x19
     f12:	89 2b       	or	r24, r25
     f14:	09 f4       	brne	.+2      	; 0xf18 <InitTransceiver+0xe4>
     f16:	bf cf       	rjmp	.-130    	; 0xe96 <InitTransceiver+0x62>
     f18:	84 8d       	ldd	r24, Z+28	; 0x1c
     f1a:	95 8d       	ldd	r25, Z+29	; 0x1d
     f1c:	89 2b       	or	r24, r25
     f1e:	09 f4       	brne	.+2      	; 0xf22 <InitTransceiver+0xee>
     f20:	ba cf       	rjmp	.-140    	; 0xe96 <InitTransceiver+0x62>
     f22:	01 e0       	ldi	r16, 0x01	; 1
     f24:	20 e0       	ldi	r18, 0x00	; 0
     f26:	30 e0       	ldi	r19, 0x00	; 0
     f28:	42 e9       	ldi	r20, 0x92	; 146
     f2a:	58 e0       	ldi	r21, 0x08	; 8
     f2c:	62 e0       	ldi	r22, 0x02	; 2
     f2e:	82 e0       	ldi	r24, 0x02	; 2
     f30:	ff d1       	rcall	.+1022   	; 0x1330 <RegisterExtInterrupt>
     f32:	81 11       	cpse	r24, r1
     f34:	b0 cf       	rjmp	.-160    	; 0xe96 <InitTransceiver+0x62>
     f36:	c0 c0       	rjmp	.+384    	; 0x10b8 <InitTransceiver+0x284>
     f38:	88 85       	ldd	r24, Y+8	; 0x08
     f3a:	82 60       	ori	r24, 0x02	; 2
     f3c:	88 60       	ori	r24, 0x08	; 8
     f3e:	88 87       	std	Y+8, r24	; 0x08
     f40:	41 e0       	ldi	r20, 0x01	; 1
     f42:	be 01       	movw	r22, r28
     f44:	68 5f       	subi	r22, 0xF8	; 248
     f46:	7f 4f       	sbci	r23, 0xFF	; 255
     f48:	80 e0       	ldi	r24, 0x00	; 0
     f4a:	46 df       	rcall	.-372    	; 0xdd8 <TCWriteReg>
     f4c:	18 86       	std	Y+8, r1	; 0x08
     f4e:	1f 82       	std	Y+7, r1	; 0x07
     f50:	f7 01       	movw	r30, r14
     f52:	80 a1       	ldd	r24, Z+32	; 0x20
     f54:	88 23       	and	r24, r24
     f56:	11 f0       	breq	.+4      	; 0xf5c <InitTransceiver+0x128>
     f58:	81 e0       	ldi	r24, 0x01	; 1
     f5a:	8f 83       	std	Y+7, r24	; 0x07
     f5c:	41 e0       	ldi	r20, 0x01	; 1
     f5e:	be 01       	movw	r22, r28
     f60:	69 5f       	subi	r22, 0xF9	; 249
     f62:	7f 4f       	sbci	r23, 0xFF	; 255
     f64:	81 e0       	ldi	r24, 0x01	; 1
     f66:	38 df       	rcall	.-400    	; 0xdd8 <TCWriteReg>
     f68:	81 e0       	ldi	r24, 0x01	; 1
     f6a:	8e 83       	std	Y+6, r24	; 0x06
     f6c:	41 e0       	ldi	r20, 0x01	; 1
     f6e:	be 01       	movw	r22, r28
     f70:	6a 5f       	subi	r22, 0xFA	; 250
     f72:	7f 4f       	sbci	r23, 0xFF	; 255
     f74:	82 e0       	ldi	r24, 0x02	; 2
     f76:	30 df       	rcall	.-416    	; 0xdd8 <TCWriteReg>
     f78:	f7 01       	movw	r30, r14
     f7a:	82 89       	ldd	r24, Z+18	; 0x12
     f7c:	91 89       	ldd	r25, Z+17	; 0x11
     f7e:	9f 70       	andi	r25, 0x0F	; 15
     f80:	82 95       	swap	r24
     f82:	80 7f       	andi	r24, 0xF0	; 240
     f84:	89 2b       	or	r24, r25
     f86:	8d 83       	std	Y+5, r24	; 0x05
     f88:	41 e0       	ldi	r20, 0x01	; 1
     f8a:	be 01       	movw	r22, r28
     f8c:	6b 5f       	subi	r22, 0xFB	; 251
     f8e:	7f 4f       	sbci	r23, 0xFF	; 255
     f90:	84 e0       	ldi	r24, 0x04	; 4
     f92:	22 df       	rcall	.-444    	; 0xdd8 <TCWriteReg>
     f94:	41 e0       	ldi	r20, 0x01	; 1
     f96:	b7 01       	movw	r22, r14
     f98:	6d 5e       	subi	r22, 0xED	; 237
     f9a:	7f 4f       	sbci	r23, 0xFF	; 255
     f9c:	85 e0       	ldi	r24, 0x05	; 5
     f9e:	1c df       	rcall	.-456    	; 0xdd8 <TCWriteReg>
     fa0:	8e e0       	ldi	r24, 0x0E	; 14
     fa2:	8c 83       	std	Y+4, r24	; 0x04
     fa4:	41 e0       	ldi	r20, 0x01	; 1
     fa6:	be 01       	movw	r22, r28
     fa8:	6c 5f       	subi	r22, 0xFC	; 252
     faa:	7f 4f       	sbci	r23, 0xFF	; 255
     fac:	86 e0       	ldi	r24, 0x06	; 6
     fae:	14 df       	rcall	.-472    	; 0xdd8 <TCWriteReg>
     fb0:	f7 01       	movw	r30, r14
     fb2:	71 81       	ldd	r23, Z+1	; 0x01
     fb4:	62 81       	ldd	r22, Z+2	; 0x02
     fb6:	53 81       	ldd	r21, Z+3	; 0x03
     fb8:	44 81       	ldd	r20, Z+4	; 0x04
     fba:	35 81       	ldd	r19, Z+5	; 0x05
     fbc:	26 81       	ldd	r18, Z+6	; 0x06
     fbe:	97 81       	ldd	r25, Z+7	; 0x07
     fc0:	80 85       	ldd	r24, Z+8	; 0x08
     fc2:	70 93 39 16 	sts	0x1639, r23
     fc6:	60 93 3a 16 	sts	0x163A, r22
     fca:	50 93 3b 16 	sts	0x163B, r21
     fce:	40 93 3c 16 	sts	0x163C, r20
     fd2:	30 93 3d 16 	sts	0x163D, r19
     fd6:	20 93 3e 16 	sts	0x163E, r18
     fda:	90 93 3f 16 	sts	0x163F, r25
     fde:	80 93 40 16 	sts	0x1640, r24
     fe2:	70 93 41 16 	sts	0x1641, r23
     fe6:	60 93 42 16 	sts	0x1642, r22
     fea:	50 93 43 16 	sts	0x1643, r21
     fee:	40 93 44 16 	sts	0x1644, r20
     ff2:	30 93 45 16 	sts	0x1645, r19
     ff6:	20 93 46 16 	sts	0x1646, r18
     ffa:	90 93 47 16 	sts	0x1647, r25
     ffe:	80 93 48 16 	sts	0x1648, r24
    1002:	80 a1       	ldd	r24, Z+32	; 0x20
    1004:	88 23       	and	r24, r24
    1006:	91 f0       	breq	.+36     	; 0x102c <InitTransceiver+0x1f8>
    1008:	80 81       	ld	r24, Z
    100a:	45 e0       	ldi	r20, 0x05	; 5
    100c:	81 11       	cpse	r24, r1
    100e:	05 c0       	rjmp	.+10     	; 0x101a <InitTransceiver+0x1e6>
    1010:	b7 01       	movw	r22, r14
    1012:	6f 5f       	subi	r22, 0xFF	; 255
    1014:	7f 4f       	sbci	r23, 0xFF	; 255
    1016:	8a e0       	ldi	r24, 0x0A	; 10
    1018:	14 c0       	rjmp	.+40     	; 0x1042 <InitTransceiver+0x20e>
    101a:	87 01       	movw	r16, r14
    101c:	07 5f       	subi	r16, 0xF7	; 247
    101e:	1f 4f       	sbci	r17, 0xFF	; 255
    1020:	b8 01       	movw	r22, r16
    1022:	8a e0       	ldi	r24, 0x0A	; 10
    1024:	d9 de       	rcall	.-590    	; 0xdd8 <TCWriteReg>
    1026:	45 e0       	ldi	r20, 0x05	; 5
    1028:	b8 01       	movw	r22, r16
    102a:	0a c0       	rjmp	.+20     	; 0x1040 <InitTransceiver+0x20c>
    102c:	45 e0       	ldi	r20, 0x05	; 5
    102e:	b7 01       	movw	r22, r14
    1030:	6f 5f       	subi	r22, 0xFF	; 255
    1032:	7f 4f       	sbci	r23, 0xFF	; 255
    1034:	8a e0       	ldi	r24, 0x0A	; 10
    1036:	d0 de       	rcall	.-608    	; 0xdd8 <TCWriteReg>
    1038:	45 e0       	ldi	r20, 0x05	; 5
    103a:	b7 01       	movw	r22, r14
    103c:	67 5f       	subi	r22, 0xF7	; 247
    103e:	7f 4f       	sbci	r23, 0xFF	; 255
    1040:	80 e1       	ldi	r24, 0x10	; 16
    1042:	ca de       	rcall	.-620    	; 0xdd8 <TCWriteReg>
    1044:	f7 01       	movw	r30, r14
    1046:	80 a1       	ldd	r24, Z+32	; 0x20
    1048:	81 11       	cpse	r24, r1
    104a:	0a c0       	rjmp	.+20     	; 0x1060 <InitTransceiver+0x22c>
    104c:	8a 81       	ldd	r24, Y+2	; 0x02
    104e:	80 7c       	andi	r24, 0xC0	; 192
    1050:	80 62       	ori	r24, 0x20	; 32
    1052:	8a 83       	std	Y+2, r24	; 0x02
    1054:	41 e0       	ldi	r20, 0x01	; 1
    1056:	be 01       	movw	r22, r28
    1058:	6e 5f       	subi	r22, 0xFE	; 254
    105a:	7f 4f       	sbci	r23, 0xFF	; 255
    105c:	81 e1       	ldi	r24, 0x11	; 17
    105e:	bc de       	rcall	.-648    	; 0xdd8 <TCWriteReg>
    1060:	f7 01       	movw	r30, r14
    1062:	80 a1       	ldd	r24, Z+32	; 0x20
    1064:	88 23       	and	r24, r24
    1066:	41 f0       	breq	.+16     	; 0x1078 <InitTransceiver+0x244>
    1068:	81 e0       	ldi	r24, 0x01	; 1
    106a:	8b 83       	std	Y+3, r24	; 0x03
    106c:	41 e0       	ldi	r20, 0x01	; 1
    106e:	be 01       	movw	r22, r28
    1070:	6d 5f       	subi	r22, 0xFD	; 253
    1072:	7f 4f       	sbci	r23, 0xFF	; 255
    1074:	8c e1       	ldi	r24, 0x1C	; 28
    1076:	b0 de       	rcall	.-672    	; 0xdd8 <TCWriteReg>
    1078:	82 e0       	ldi	r24, 0x02	; 2
    107a:	89 83       	std	Y+1, r24	; 0x01
    107c:	f7 01       	movw	r30, r14
    107e:	80 a1       	ldd	r24, Z+32	; 0x20
    1080:	88 23       	and	r24, r24
    1082:	11 f0       	breq	.+4      	; 0x1088 <InitTransceiver+0x254>
    1084:	86 e0       	ldi	r24, 0x06	; 6
    1086:	89 83       	std	Y+1, r24	; 0x01
    1088:	41 e0       	ldi	r20, 0x01	; 1
    108a:	be 01       	movw	r22, r28
    108c:	6f 5f       	subi	r22, 0xFF	; 255
    108e:	7f 4f       	sbci	r23, 0xFF	; 255
    1090:	8d e1       	ldi	r24, 0x1D	; 29
    1092:	a2 de       	rcall	.-700    	; 0xdd8 <TCWriteReg>
    1094:	80 e0       	ldi	r24, 0x00	; 0
    1096:	11 dd       	rcall	.-1502   	; 0xaba <TCFlushFIFO>
    1098:	81 e0       	ldi	r24, 0x01	; 1
    109a:	0f dd       	rcall	.-1506   	; 0xaba <TCFlushFIFO>
    109c:	f7 01       	movw	r30, r14
    109e:	80 81       	ld	r24, Z
    10a0:	81 11       	cpse	r24, r1
    10a2:	07 c0       	rjmp	.+14     	; 0x10b2 <InitTransceiver+0x27e>
    10a4:	47 9a       	sbi	0x08, 7	; 8
    10a6:	83 e0       	ldi	r24, 0x03	; 3
    10a8:	91 e0       	ldi	r25, 0x01	; 1
    10aa:	01 97       	sbiw	r24, 0x01	; 1
    10ac:	f1 f7       	brne	.-4      	; 0x10aa <InitTransceiver+0x276>
    10ae:	00 c0       	rjmp	.+0      	; 0x10b0 <InitTransceiver+0x27c>
    10b0:	00 00       	nop
    10b2:	81 e0       	ldi	r24, 0x01	; 1
    10b4:	80 93 eb 15 	sts	0x15EB, r24
    10b8:	80 91 eb 15 	lds	r24, 0x15EB
    10bc:	28 96       	adiw	r28, 0x08	; 8
    10be:	0f b6       	in	r0, 0x3f	; 63
    10c0:	f8 94       	cli
    10c2:	de bf       	out	0x3e, r29	; 62
    10c4:	0f be       	out	0x3f, r0	; 63
    10c6:	cd bf       	out	0x3d, r28	; 61
    10c8:	df 91       	pop	r29
    10ca:	cf 91       	pop	r28
    10cc:	1f 91       	pop	r17
    10ce:	0f 91       	pop	r16
    10d0:	ff 90       	pop	r15
    10d2:	ef 90       	pop	r14
    10d4:	08 95       	ret

000010d6 <TCIsReceivePayloadAvailable>:
    10d6:	cf 93       	push	r28
    10d8:	df 93       	push	r29
    10da:	1f 92       	push	r1
    10dc:	cd b7       	in	r28, 0x3d	; 61
    10de:	de b7       	in	r29, 0x3e	; 62
    10e0:	41 e0       	ldi	r20, 0x01	; 1
    10e2:	be 01       	movw	r22, r28
    10e4:	6f 5f       	subi	r22, 0xFF	; 255
    10e6:	7f 4f       	sbci	r23, 0xFF	; 255
    10e8:	87 e0       	ldi	r24, 0x07	; 7
    10ea:	69 de       	rcall	.-814    	; 0xdbe <TCReadReg>
    10ec:	89 81       	ldd	r24, Y+1	; 0x01
    10ee:	86 ff       	sbrs	r24, 6
    10f0:	14 c0       	rjmp	.+40     	; 0x111a <TCIsReceivePayloadAvailable+0x44>
    10f2:	80 e4       	ldi	r24, 0x40	; 64
    10f4:	89 83       	std	Y+1, r24	; 0x01
    10f6:	41 e0       	ldi	r20, 0x01	; 1
    10f8:	be 01       	movw	r22, r28
    10fa:	6f 5f       	subi	r22, 0xFF	; 255
    10fc:	7f 4f       	sbci	r23, 0xFF	; 255
    10fe:	87 e0       	ldi	r24, 0x07	; 7
    1100:	6b de       	rcall	.-810    	; 0xdd8 <TCWriteReg>
    1102:	86 ea       	ldi	r24, 0xA6	; 166
    1104:	97 e0       	ldi	r25, 0x07	; 7
    1106:	9f 93       	push	r25
    1108:	8f 93       	push	r24
    110a:	84 e0       	ldi	r24, 0x04	; 4
    110c:	8f 93       	push	r24
    110e:	62 db       	rcall	.-2364   	; 0x7d4 <SendTrace>
    1110:	0f 90       	pop	r0
    1112:	0f 90       	pop	r0
    1114:	0f 90       	pop	r0
    1116:	81 e0       	ldi	r24, 0x01	; 1
    1118:	01 c0       	rjmp	.+2      	; 0x111c <TCIsReceivePayloadAvailable+0x46>
    111a:	80 e0       	ldi	r24, 0x00	; 0
    111c:	0f 90       	pop	r0
    111e:	df 91       	pop	r29
    1120:	cf 91       	pop	r28
    1122:	08 95       	ret

00001124 <TCIntCallback>:
    1124:	cf 93       	push	r28
    1126:	df 93       	push	r29
    1128:	00 d0       	rcall	.+0      	; 0x112a <TCIntCallback+0x6>
    112a:	cd b7       	in	r28, 0x3d	; 61
    112c:	de b7       	in	r29, 0x3e	; 62
    112e:	41 e0       	ldi	r20, 0x01	; 1
    1130:	be 01       	movw	r22, r28
    1132:	6e 5f       	subi	r22, 0xFE	; 254
    1134:	7f 4f       	sbci	r23, 0xFF	; 255
    1136:	87 e0       	ldi	r24, 0x07	; 7
    1138:	42 de       	rcall	.-892    	; 0xdbe <TCReadReg>
    113a:	8a 81       	ldd	r24, Y+2	; 0x02
    113c:	1f 92       	push	r1
    113e:	8f 93       	push	r24
    1140:	87 e3       	ldi	r24, 0x37	; 55
    1142:	98 e0       	ldi	r25, 0x08	; 8
    1144:	9f 93       	push	r25
    1146:	8f 93       	push	r24
    1148:	84 e0       	ldi	r24, 0x04	; 4
    114a:	8f 93       	push	r24
    114c:	43 db       	rcall	.-2426   	; 0x7d4 <SendTrace>
    114e:	19 82       	std	Y+1, r1	; 0x01
    1150:	8a 81       	ldd	r24, Y+2	; 0x02
    1152:	0f 90       	pop	r0
    1154:	0f 90       	pop	r0
    1156:	0f 90       	pop	r0
    1158:	0f 90       	pop	r0
    115a:	0f 90       	pop	r0
    115c:	84 ff       	sbrs	r24, 4
    115e:	0e c0       	rjmp	.+28     	; 0x117c <TCIntCallback+0x58>
    1160:	e0 91 e9 15 	lds	r30, 0x15E9
    1164:	f0 91 ea 15 	lds	r31, 0x15EA
    1168:	30 97       	sbiw	r30, 0x00	; 0
    116a:	41 f0       	breq	.+16     	; 0x117c <TCIntCallback+0x58>
    116c:	80 91 e7 15 	lds	r24, 0x15E7
    1170:	90 91 e8 15 	lds	r25, 0x15E8
    1174:	09 95       	icall
    1176:	89 81       	ldd	r24, Y+1	; 0x01
    1178:	80 61       	ori	r24, 0x10	; 16
    117a:	89 83       	std	Y+1, r24	; 0x01
    117c:	8a 81       	ldd	r24, Y+2	; 0x02
    117e:	86 ff       	sbrs	r24, 6
    1180:	0e c0       	rjmp	.+28     	; 0x119e <TCIntCallback+0x7a>
    1182:	e0 91 e5 15 	lds	r30, 0x15E5
    1186:	f0 91 e6 15 	lds	r31, 0x15E6
    118a:	30 97       	sbiw	r30, 0x00	; 0
    118c:	41 f0       	breq	.+16     	; 0x119e <TCIntCallback+0x7a>
    118e:	80 91 e3 15 	lds	r24, 0x15E3
    1192:	90 91 e4 15 	lds	r25, 0x15E4
    1196:	09 95       	icall
    1198:	89 81       	ldd	r24, Y+1	; 0x01
    119a:	80 64       	ori	r24, 0x40	; 64
    119c:	89 83       	std	Y+1, r24	; 0x01
    119e:	8a 81       	ldd	r24, Y+2	; 0x02
    11a0:	85 ff       	sbrs	r24, 5
    11a2:	0e c0       	rjmp	.+28     	; 0x11c0 <TCIntCallback+0x9c>
    11a4:	e0 91 e1 15 	lds	r30, 0x15E1
    11a8:	f0 91 e2 15 	lds	r31, 0x15E2
    11ac:	30 97       	sbiw	r30, 0x00	; 0
    11ae:	41 f0       	breq	.+16     	; 0x11c0 <TCIntCallback+0x9c>
    11b0:	80 91 df 15 	lds	r24, 0x15DF
    11b4:	90 91 e0 15 	lds	r25, 0x15E0
    11b8:	09 95       	icall
    11ba:	89 81       	ldd	r24, Y+1	; 0x01
    11bc:	80 62       	ori	r24, 0x20	; 32
    11be:	89 83       	std	Y+1, r24	; 0x01
    11c0:	41 e0       	ldi	r20, 0x01	; 1
    11c2:	be 01       	movw	r22, r28
    11c4:	6f 5f       	subi	r22, 0xFF	; 255
    11c6:	7f 4f       	sbci	r23, 0xFF	; 255
    11c8:	87 e0       	ldi	r24, 0x07	; 7
    11ca:	06 de       	rcall	.-1012   	; 0xdd8 <TCWriteReg>
    11cc:	0f 90       	pop	r0
    11ce:	0f 90       	pop	r0
    11d0:	df 91       	pop	r29
    11d2:	cf 91       	pop	r28
    11d4:	08 95       	ret

000011d6 <TCInitTransfer>:
    11d6:	cf 93       	push	r28
    11d8:	df 93       	push	r29
    11da:	00 d0       	rcall	.+0      	; 0x11dc <TCInitTransfer+0x6>
    11dc:	00 d0       	rcall	.+0      	; 0x11de <TCInitTransfer+0x8>
    11de:	1f 92       	push	r1
    11e0:	cd b7       	in	r28, 0x3d	; 61
    11e2:	de b7       	in	r29, 0x3e	; 62
    11e4:	81 e0       	ldi	r24, 0x01	; 1
    11e6:	89 83       	std	Y+1, r24	; 0x01
    11e8:	1a 82       	std	Y+2, r1	; 0x02
    11ea:	1b 82       	std	Y+3, r1	; 0x03
    11ec:	1c 82       	std	Y+4, r1	; 0x04
    11ee:	1d 82       	std	Y+5, r1	; 0x05
    11f0:	ce 01       	movw	r24, r28
    11f2:	01 96       	adiw	r24, 0x01	; 1
    11f4:	08 d0       	rcall	.+16     	; 0x1206 <InitSPI>
    11f6:	0f 90       	pop	r0
    11f8:	0f 90       	pop	r0
    11fa:	0f 90       	pop	r0
    11fc:	0f 90       	pop	r0
    11fe:	0f 90       	pop	r0
    1200:	df 91       	pop	r29
    1202:	cf 91       	pop	r28
    1204:	08 95       	ret

00001206 <InitSPI>:
    1206:	fc 01       	movw	r30, r24
    1208:	1c bc       	out	0x2c, r1	; 44
    120a:	84 b1       	in	r24, 0x04	; 4
    120c:	8f 70       	andi	r24, 0x0F	; 15
    120e:	84 b9       	out	0x04, r24	; 4
    1210:	84 81       	ldd	r24, Z+4	; 0x04
    1212:	83 70       	andi	r24, 0x03	; 3
    1214:	8c bd       	out	0x2c, r24	; 44
    1216:	84 81       	ldd	r24, Z+4	; 0x04
    1218:	82 ff       	sbrs	r24, 2
    121a:	02 c0       	rjmp	.+4      	; 0x1220 <InitSPI+0x1a>
    121c:	81 e0       	ldi	r24, 0x01	; 1
    121e:	8d bd       	out	0x2d, r24	; 45
    1220:	82 81       	ldd	r24, Z+2	; 0x02
    1222:	88 23       	and	r24, r24
    1224:	19 f0       	breq	.+6      	; 0x122c <InitSPI+0x26>
    1226:	8c b5       	in	r24, 0x2c	; 44
    1228:	84 60       	ori	r24, 0x04	; 4
    122a:	8c bd       	out	0x2c, r24	; 44
    122c:	81 81       	ldd	r24, Z+1	; 0x01
    122e:	88 23       	and	r24, r24
    1230:	19 f0       	breq	.+6      	; 0x1238 <InitSPI+0x32>
    1232:	8c b5       	in	r24, 0x2c	; 44
    1234:	88 60       	ori	r24, 0x08	; 8
    1236:	8c bd       	out	0x2c, r24	; 44
    1238:	83 81       	ldd	r24, Z+3	; 0x03
    123a:	88 23       	and	r24, r24
    123c:	19 f0       	breq	.+6      	; 0x1244 <InitSPI+0x3e>
    123e:	8c b5       	in	r24, 0x2c	; 44
    1240:	80 62       	ori	r24, 0x20	; 32
    1242:	8c bd       	out	0x2c, r24	; 44
    1244:	80 81       	ld	r24, Z
    1246:	88 23       	and	r24, r24
    1248:	59 f0       	breq	.+22     	; 0x1260 <InitSPI+0x5a>
    124a:	84 b1       	in	r24, 0x04	; 4
    124c:	80 6b       	ori	r24, 0xB0	; 176
    124e:	84 b9       	out	0x04, r24	; 4
    1250:	8c b5       	in	r24, 0x2c	; 44
    1252:	80 61       	ori	r24, 0x10	; 16
    1254:	8c bd       	out	0x2c, r24	; 44
    1256:	2c 9a       	sbi	0x05, 4	; 5
    1258:	81 e0       	ldi	r24, 0x01	; 1
    125a:	80 93 ec 15 	sts	0x15EC, r24
    125e:	01 c0       	rjmp	.+2      	; 0x1262 <InitSPI+0x5c>
    1260:	26 9a       	sbi	0x04, 6	; 4
    1262:	1e bc       	out	0x2e, r1	; 46
    1264:	8c b5       	in	r24, 0x2c	; 44
    1266:	80 64       	ori	r24, 0x40	; 64
    1268:	8c bd       	out	0x2c, r24	; 44
    126a:	81 e0       	ldi	r24, 0x01	; 1
    126c:	80 93 ed 15 	sts	0x15ED, r24
    1270:	08 95       	ret

00001272 <SPIBeginTransfer>:
    1272:	2c 98       	cbi	0x05, 4	; 5
    1274:	08 95       	ret

00001276 <SPIEndTransfer>:
    1276:	2c 9a       	sbi	0x05, 4	; 5
    1278:	08 95       	ret

0000127a <SPIMasterTransfer>:
    127a:	cf 92       	push	r12
    127c:	df 92       	push	r13
    127e:	ef 92       	push	r14
    1280:	ff 92       	push	r15
    1282:	fb 01       	movw	r30, r22
    1284:	60 91 ed 15 	lds	r22, 0x15ED
    1288:	61 11       	cpse	r22, r1
    128a:	03 c0       	rjmp	.+6      	; 0x1292 <SPIMasterTransfer+0x18>
    128c:	81 e5       	ldi	r24, 0x51	; 81
    128e:	98 e0       	ldi	r25, 0x08	; 8
    1290:	06 c0       	rjmp	.+12     	; 0x129e <SPIMasterTransfer+0x24>
    1292:	60 91 ec 15 	lds	r22, 0x15EC
    1296:	61 11       	cpse	r22, r1
    1298:	0c c0       	rjmp	.+24     	; 0x12b2 <SPIMasterTransfer+0x38>
    129a:	85 e7       	ldi	r24, 0x75	; 117
    129c:	98 e0       	ldi	r25, 0x08	; 8
    129e:	9f 93       	push	r25
    12a0:	8f 93       	push	r24
    12a2:	81 e0       	ldi	r24, 0x01	; 1
    12a4:	8f 93       	push	r24
    12a6:	96 da       	rcall	.-2772   	; 0x7d4 <SendTrace>
    12a8:	0f 90       	pop	r0
    12aa:	0f 90       	pop	r0
    12ac:	0f 90       	pop	r0
    12ae:	80 e0       	ldi	r24, 0x00	; 0
    12b0:	23 c0       	rjmp	.+70     	; 0x12f8 <SPIMasterTransfer+0x7e>
    12b2:	21 15       	cp	r18, r1
    12b4:	31 05       	cpc	r19, r1
    12b6:	41 05       	cpc	r20, r1
    12b8:	51 05       	cpc	r21, r1
    12ba:	49 f0       	breq	.+18     	; 0x12ce <SPIMasterTransfer+0x54>
    12bc:	00 97       	sbiw	r24, 0x00	; 0
    12be:	39 f0       	breq	.+14     	; 0x12ce <SPIMasterTransfer+0x54>
    12c0:	30 97       	sbiw	r30, 0x00	; 0
    12c2:	29 f0       	breq	.+10     	; 0x12ce <SPIMasterTransfer+0x54>
    12c4:	dc 01       	movw	r26, r24
    12c6:	c1 2c       	mov	r12, r1
    12c8:	d1 2c       	mov	r13, r1
    12ca:	76 01       	movw	r14, r12
    12cc:	03 c0       	rjmp	.+6      	; 0x12d4 <SPIMasterTransfer+0x5a>
    12ce:	8c e9       	ldi	r24, 0x9C	; 156
    12d0:	98 e0       	ldi	r25, 0x08	; 8
    12d2:	e5 cf       	rjmp	.-54     	; 0x129e <SPIMasterTransfer+0x24>
    12d4:	8d 91       	ld	r24, X+
    12d6:	8e bd       	out	0x2e, r24	; 46
    12d8:	0d b4       	in	r0, 0x2d	; 45
    12da:	07 fe       	sbrs	r0, 7
    12dc:	fd cf       	rjmp	.-6      	; 0x12d8 <SPIMasterTransfer+0x5e>
    12de:	8e b5       	in	r24, 0x2e	; 46
    12e0:	81 93       	st	Z+, r24
    12e2:	8f ef       	ldi	r24, 0xFF	; 255
    12e4:	c8 1a       	sub	r12, r24
    12e6:	d8 0a       	sbc	r13, r24
    12e8:	e8 0a       	sbc	r14, r24
    12ea:	f8 0a       	sbc	r15, r24
    12ec:	c2 16       	cp	r12, r18
    12ee:	d3 06       	cpc	r13, r19
    12f0:	e4 06       	cpc	r14, r20
    12f2:	f5 06       	cpc	r15, r21
    12f4:	79 f7       	brne	.-34     	; 0x12d4 <SPIMasterTransfer+0x5a>
    12f6:	81 e0       	ldi	r24, 0x01	; 1
    12f8:	ff 90       	pop	r15
    12fa:	ef 90       	pop	r14
    12fc:	df 90       	pop	r13
    12fe:	cf 90       	pop	r12
    1300:	08 95       	ret

00001302 <InitExtInt>:
    1302:	f8 94       	cli
    1304:	10 92 69 00 	sts	0x0069, r1
    1308:	1d ba       	out	0x1d, r1	; 29
    130a:	87 e0       	ldi	r24, 0x07	; 7
    130c:	8c bb       	out	0x1c, r24	; 28
    130e:	10 92 68 00 	sts	0x0068, r1
    1312:	8f e0       	ldi	r24, 0x0F	; 15
    1314:	8b bb       	out	0x1b, r24	; 27
    1316:	10 92 6b 00 	sts	0x006B, r1
    131a:	10 92 6c 00 	sts	0x006C, r1
    131e:	10 92 6d 00 	sts	0x006D, r1
    1322:	10 92 73 00 	sts	0x0073, r1
    1326:	78 94       	sei
    1328:	81 e0       	ldi	r24, 0x01	; 1
    132a:	80 93 fa 15 	sts	0x15FA, r24
    132e:	08 95       	ret

00001330 <RegisterExtInterrupt>:
    1330:	8f 92       	push	r8
    1332:	9f 92       	push	r9
    1334:	af 92       	push	r10
    1336:	bf 92       	push	r11
    1338:	cf 92       	push	r12
    133a:	df 92       	push	r13
    133c:	ef 92       	push	r14
    133e:	ff 92       	push	r15
    1340:	0f 93       	push	r16
    1342:	cf 93       	push	r28
    1344:	df 93       	push	r29
    1346:	00 d0       	rcall	.+0      	; 0x1348 <RegisterExtInterrupt+0x18>
    1348:	cd b7       	in	r28, 0x3d	; 61
    134a:	de b7       	in	r29, 0x3e	; 62
    134c:	6a 01       	movw	r12, r20
    134e:	59 01       	movw	r10, r18
    1350:	90 91 fa 15 	lds	r25, 0x15FA
    1354:	91 11       	cpse	r25, r1
    1356:	03 c0       	rjmp	.+6      	; 0x135e <RegisterExtInterrupt+0x2e>
    1358:	8d eb       	ldi	r24, 0xBD	; 189
    135a:	98 e0       	ldi	r25, 0x08	; 8
    135c:	15 c0       	rjmp	.+42     	; 0x1388 <RegisterExtInterrupt+0x58>
    135e:	41 15       	cp	r20, r1
    1360:	51 05       	cpc	r21, r1
    1362:	19 f4       	brne	.+6      	; 0x136a <RegisterExtInterrupt+0x3a>
    1364:	82 ee       	ldi	r24, 0xE2	; 226
    1366:	98 e0       	ldi	r25, 0x08	; 8
    1368:	0f c0       	rjmp	.+30     	; 0x1388 <RegisterExtInterrupt+0x58>
    136a:	88 2e       	mov	r8, r24
    136c:	91 2c       	mov	r9, r1
    136e:	88 0c       	add	r8, r8
    1370:	99 1c       	adc	r9, r9
    1372:	94 01       	movw	r18, r8
    1374:	2c 50       	subi	r18, 0x0C	; 12
    1376:	3a 4e       	sbci	r19, 0xEA	; 234
    1378:	79 01       	movw	r14, r18
    137a:	f9 01       	movw	r30, r18
    137c:	20 81       	ld	r18, Z
    137e:	31 81       	ldd	r19, Z+1	; 0x01
    1380:	23 2b       	or	r18, r19
    1382:	61 f0       	breq	.+24     	; 0x139c <RegisterExtInterrupt+0x6c>
    1384:	8d ef       	ldi	r24, 0xFD	; 253
    1386:	98 e0       	ldi	r25, 0x08	; 8
    1388:	9f 93       	push	r25
    138a:	8f 93       	push	r24
    138c:	81 e0       	ldi	r24, 0x01	; 1
    138e:	8f 93       	push	r24
    1390:	21 da       	rcall	.-3006   	; 0x7d4 <SendTrace>
    1392:	0f 90       	pop	r0
    1394:	0f 90       	pop	r0
    1396:	0f 90       	pop	r0
    1398:	80 e0       	ldi	r24, 0x00	; 0
    139a:	45 c0       	rjmp	.+138    	; 0x1426 <RegisterExtInterrupt+0xf6>
    139c:	1f 92       	push	r1
    139e:	8f 93       	push	r24
    13a0:	4c e1       	ldi	r20, 0x1C	; 28
    13a2:	59 e0       	ldi	r21, 0x09	; 9
    13a4:	5f 93       	push	r21
    13a6:	4f 93       	push	r20
    13a8:	94 e0       	ldi	r25, 0x04	; 4
    13aa:	9f 93       	push	r25
    13ac:	6a 83       	std	Y+2, r22	; 0x02
    13ae:	89 83       	std	Y+1, r24	; 0x01
    13b0:	11 da       	rcall	.-3038   	; 0x7d4 <SendTrace>
    13b2:	f7 01       	movw	r30, r14
    13b4:	d1 82       	std	Z+1, r13	; 0x01
    13b6:	c0 82       	st	Z, r12
    13b8:	f4 01       	movw	r30, r8
    13ba:	e2 51       	subi	r30, 0x12	; 18
    13bc:	fa 4e       	sbci	r31, 0xEA	; 234
    13be:	b1 82       	std	Z+1, r11	; 0x01
    13c0:	a0 82       	st	Z, r10
    13c2:	90 91 69 00 	lds	r25, 0x0069
    13c6:	6a 81       	ldd	r22, Y+2	; 0x02
    13c8:	08 2c       	mov	r0, r8
    13ca:	01 c0       	rjmp	.+2      	; 0x13ce <RegisterExtInterrupt+0x9e>
    13cc:	66 0f       	add	r22, r22
    13ce:	0a 94       	dec	r0
    13d0:	ea f7       	brpl	.-6      	; 0x13cc <RegisterExtInterrupt+0x9c>
    13d2:	96 2b       	or	r25, r22
    13d4:	90 93 69 00 	sts	0x0069, r25
    13d8:	9d b3       	in	r25, 0x1d	; 29
    13da:	21 e0       	ldi	r18, 0x01	; 1
    13dc:	30 e0       	ldi	r19, 0x00	; 0
    13de:	89 81       	ldd	r24, Y+1	; 0x01
    13e0:	08 2e       	mov	r0, r24
    13e2:	01 c0       	rjmp	.+2      	; 0x13e6 <RegisterExtInterrupt+0xb6>
    13e4:	22 0f       	add	r18, r18
    13e6:	0a 94       	dec	r0
    13e8:	ea f7       	brpl	.-6      	; 0x13e4 <RegisterExtInterrupt+0xb4>
    13ea:	92 2b       	or	r25, r18
    13ec:	9d bb       	out	0x1d, r25	; 29
    13ee:	9c b3       	in	r25, 0x1c	; 28
    13f0:	92 2b       	or	r25, r18
    13f2:	9c bb       	out	0x1c, r25	; 28
    13f4:	0f 90       	pop	r0
    13f6:	0f 90       	pop	r0
    13f8:	0f 90       	pop	r0
    13fa:	0f 90       	pop	r0
    13fc:	0f 90       	pop	r0
    13fe:	81 30       	cpi	r24, 0x01	; 1
    1400:	49 f0       	breq	.+18     	; 0x1414 <RegisterExtInterrupt+0xe4>
    1402:	18 f0       	brcs	.+6      	; 0x140a <RegisterExtInterrupt+0xda>
    1404:	82 30       	cpi	r24, 0x02	; 2
    1406:	59 f0       	breq	.+22     	; 0x141e <RegisterExtInterrupt+0xee>
    1408:	0d c0       	rjmp	.+26     	; 0x1424 <RegisterExtInterrupt+0xf4>
    140a:	52 98       	cbi	0x0a, 2	; 10
    140c:	00 23       	and	r16, r16
    140e:	51 f0       	breq	.+20     	; 0x1424 <RegisterExtInterrupt+0xf4>
    1410:	5a 9a       	sbi	0x0b, 2	; 11
    1412:	08 c0       	rjmp	.+16     	; 0x1424 <RegisterExtInterrupt+0xf4>
    1414:	53 98       	cbi	0x0a, 3	; 10
    1416:	00 23       	and	r16, r16
    1418:	29 f0       	breq	.+10     	; 0x1424 <RegisterExtInterrupt+0xf4>
    141a:	5b 9a       	sbi	0x0b, 3	; 11
    141c:	03 c0       	rjmp	.+6      	; 0x1424 <RegisterExtInterrupt+0xf4>
    141e:	52 98       	cbi	0x0a, 2	; 10
    1420:	01 11       	cpse	r16, r1
    1422:	2a 9a       	sbi	0x05, 2	; 5
    1424:	81 e0       	ldi	r24, 0x01	; 1
    1426:	0f 90       	pop	r0
    1428:	0f 90       	pop	r0
    142a:	df 91       	pop	r29
    142c:	cf 91       	pop	r28
    142e:	0f 91       	pop	r16
    1430:	ff 90       	pop	r15
    1432:	ef 90       	pop	r14
    1434:	df 90       	pop	r13
    1436:	cf 90       	pop	r12
    1438:	bf 90       	pop	r11
    143a:	af 90       	pop	r10
    143c:	9f 90       	pop	r9
    143e:	8f 90       	pop	r8
    1440:	08 95       	ret

00001442 <__vector_1>:
    1442:	1f 92       	push	r1
    1444:	0f 92       	push	r0
    1446:	0f b6       	in	r0, 0x3f	; 63
    1448:	0f 92       	push	r0
    144a:	11 24       	eor	r1, r1
    144c:	0b b6       	in	r0, 0x3b	; 59
    144e:	0f 92       	push	r0
    1450:	2f 93       	push	r18
    1452:	3f 93       	push	r19
    1454:	4f 93       	push	r20
    1456:	5f 93       	push	r21
    1458:	6f 93       	push	r22
    145a:	7f 93       	push	r23
    145c:	8f 93       	push	r24
    145e:	9f 93       	push	r25
    1460:	af 93       	push	r26
    1462:	bf 93       	push	r27
    1464:	ef 93       	push	r30
    1466:	ff 93       	push	r31
    1468:	f8 94       	cli
    146a:	e0 91 f4 15 	lds	r30, 0x15F4
    146e:	f0 91 f5 15 	lds	r31, 0x15F5
    1472:	30 97       	sbiw	r30, 0x00	; 0
    1474:	29 f0       	breq	.+10     	; 0x1480 <__vector_1+0x3e>
    1476:	80 91 ee 15 	lds	r24, 0x15EE
    147a:	90 91 ef 15 	lds	r25, 0x15EF
    147e:	09 95       	icall
    1480:	78 94       	sei
    1482:	ff 91       	pop	r31
    1484:	ef 91       	pop	r30
    1486:	bf 91       	pop	r27
    1488:	af 91       	pop	r26
    148a:	9f 91       	pop	r25
    148c:	8f 91       	pop	r24
    148e:	7f 91       	pop	r23
    1490:	6f 91       	pop	r22
    1492:	5f 91       	pop	r21
    1494:	4f 91       	pop	r20
    1496:	3f 91       	pop	r19
    1498:	2f 91       	pop	r18
    149a:	0f 90       	pop	r0
    149c:	0b be       	out	0x3b, r0	; 59
    149e:	0f 90       	pop	r0
    14a0:	0f be       	out	0x3f, r0	; 63
    14a2:	0f 90       	pop	r0
    14a4:	1f 90       	pop	r1
    14a6:	18 95       	reti

000014a8 <__vector_2>:
    14a8:	1f 92       	push	r1
    14aa:	0f 92       	push	r0
    14ac:	0f b6       	in	r0, 0x3f	; 63
    14ae:	0f 92       	push	r0
    14b0:	11 24       	eor	r1, r1
    14b2:	0b b6       	in	r0, 0x3b	; 59
    14b4:	0f 92       	push	r0
    14b6:	2f 93       	push	r18
    14b8:	3f 93       	push	r19
    14ba:	4f 93       	push	r20
    14bc:	5f 93       	push	r21
    14be:	6f 93       	push	r22
    14c0:	7f 93       	push	r23
    14c2:	8f 93       	push	r24
    14c4:	9f 93       	push	r25
    14c6:	af 93       	push	r26
    14c8:	bf 93       	push	r27
    14ca:	ef 93       	push	r30
    14cc:	ff 93       	push	r31
    14ce:	f8 94       	cli
    14d0:	e0 91 f6 15 	lds	r30, 0x15F6
    14d4:	f0 91 f7 15 	lds	r31, 0x15F7
    14d8:	30 97       	sbiw	r30, 0x00	; 0
    14da:	29 f0       	breq	.+10     	; 0x14e6 <__vector_2+0x3e>
    14dc:	80 91 f0 15 	lds	r24, 0x15F0
    14e0:	90 91 f1 15 	lds	r25, 0x15F1
    14e4:	09 95       	icall
    14e6:	78 94       	sei
    14e8:	ff 91       	pop	r31
    14ea:	ef 91       	pop	r30
    14ec:	bf 91       	pop	r27
    14ee:	af 91       	pop	r26
    14f0:	9f 91       	pop	r25
    14f2:	8f 91       	pop	r24
    14f4:	7f 91       	pop	r23
    14f6:	6f 91       	pop	r22
    14f8:	5f 91       	pop	r21
    14fa:	4f 91       	pop	r20
    14fc:	3f 91       	pop	r19
    14fe:	2f 91       	pop	r18
    1500:	0f 90       	pop	r0
    1502:	0b be       	out	0x3b, r0	; 59
    1504:	0f 90       	pop	r0
    1506:	0f be       	out	0x3f, r0	; 63
    1508:	0f 90       	pop	r0
    150a:	1f 90       	pop	r1
    150c:	18 95       	reti

0000150e <__vector_3>:
    150e:	1f 92       	push	r1
    1510:	0f 92       	push	r0
    1512:	0f b6       	in	r0, 0x3f	; 63
    1514:	0f 92       	push	r0
    1516:	11 24       	eor	r1, r1
    1518:	0b b6       	in	r0, 0x3b	; 59
    151a:	0f 92       	push	r0
    151c:	2f 93       	push	r18
    151e:	3f 93       	push	r19
    1520:	4f 93       	push	r20
    1522:	5f 93       	push	r21
    1524:	6f 93       	push	r22
    1526:	7f 93       	push	r23
    1528:	8f 93       	push	r24
    152a:	9f 93       	push	r25
    152c:	af 93       	push	r26
    152e:	bf 93       	push	r27
    1530:	ef 93       	push	r30
    1532:	ff 93       	push	r31
    1534:	f8 94       	cli
    1536:	e0 91 f8 15 	lds	r30, 0x15F8
    153a:	f0 91 f9 15 	lds	r31, 0x15F9
    153e:	30 97       	sbiw	r30, 0x00	; 0
    1540:	29 f0       	breq	.+10     	; 0x154c <__vector_3+0x3e>
    1542:	80 91 f2 15 	lds	r24, 0x15F2
    1546:	90 91 f3 15 	lds	r25, 0x15F3
    154a:	09 95       	icall
    154c:	78 94       	sei
    154e:	ff 91       	pop	r31
    1550:	ef 91       	pop	r30
    1552:	bf 91       	pop	r27
    1554:	af 91       	pop	r26
    1556:	9f 91       	pop	r25
    1558:	8f 91       	pop	r24
    155a:	7f 91       	pop	r23
    155c:	6f 91       	pop	r22
    155e:	5f 91       	pop	r21
    1560:	4f 91       	pop	r20
    1562:	3f 91       	pop	r19
    1564:	2f 91       	pop	r18
    1566:	0f 90       	pop	r0
    1568:	0b be       	out	0x3b, r0	; 59
    156a:	0f 90       	pop	r0
    156c:	0f be       	out	0x3f, r0	; 63
    156e:	0f 90       	pop	r0
    1570:	1f 90       	pop	r1
    1572:	18 95       	reti

00001574 <InitTWI>:
    1574:	81 11       	cpse	r24, r1
    1576:	20 c0       	rjmp	.+64     	; 0x15b8 <InitTWI+0x44>
    1578:	61 15       	cp	r22, r1
    157a:	71 05       	cpc	r23, r1
    157c:	89 f0       	breq	.+34     	; 0x15a0 <InitTWI+0x2c>
    157e:	41 15       	cp	r20, r1
    1580:	51 05       	cpc	r21, r1
    1582:	71 f0       	breq	.+28     	; 0x15a0 <InitTWI+0x2c>
    1584:	fb 01       	movw	r30, r22
    1586:	80 81       	ld	r24, Z
    1588:	80 93 ba 00 	sts	0x00BA, r24
    158c:	fa 01       	movw	r30, r20
    158e:	80 81       	ld	r24, Z
    1590:	80 93 bd 00 	sts	0x00BD, r24
    1594:	87 b1       	in	r24, 0x07	; 7
    1596:	8c 7f       	andi	r24, 0xFC	; 252
    1598:	87 b9       	out	0x07, r24	; 7
    159a:	10 92 49 16 	sts	0x1649, r1
    159e:	12 c0       	rjmp	.+36     	; 0x15c4 <InitTWI+0x50>
    15a0:	8f e2       	ldi	r24, 0x2F	; 47
    15a2:	99 e0       	ldi	r25, 0x09	; 9
    15a4:	9f 93       	push	r25
    15a6:	8f 93       	push	r24
    15a8:	81 e0       	ldi	r24, 0x01	; 1
    15aa:	8f 93       	push	r24
    15ac:	13 d9       	rcall	.-3546   	; 0x7d4 <SendTrace>
    15ae:	0f 90       	pop	r0
    15b0:	0f 90       	pop	r0
    15b2:	0f 90       	pop	r0
    15b4:	80 e0       	ldi	r24, 0x00	; 0
    15b6:	08 95       	ret
    15b8:	81 e0       	ldi	r24, 0x01	; 1
    15ba:	80 93 49 16 	sts	0x1649, r24
    15be:	87 b1       	in	r24, 0x07	; 7
    15c0:	83 60       	ori	r24, 0x03	; 3
    15c2:	87 b9       	out	0x07, r24	; 7
    15c4:	80 e2       	ldi	r24, 0x20	; 32
    15c6:	80 93 b8 00 	sts	0x00B8, r24
    15ca:	10 92 b9 00 	sts	0x00B9, r1
    15ce:	84 e4       	ldi	r24, 0x44	; 68
    15d0:	80 93 bc 00 	sts	0x00BC, r24
    15d4:	ff ef       	ldi	r31, 0xFF	; 255
    15d6:	20 e7       	ldi	r18, 0x70	; 112
    15d8:	82 e0       	ldi	r24, 0x02	; 2
    15da:	f1 50       	subi	r31, 0x01	; 1
    15dc:	20 40       	sbci	r18, 0x00	; 0
    15de:	80 40       	sbci	r24, 0x00	; 0
    15e0:	e1 f7       	brne	.-8      	; 0x15da <InitTWI+0x66>
    15e2:	00 c0       	rjmp	.+0      	; 0x15e4 <InitTWI+0x70>
    15e4:	00 00       	nop
    15e6:	10 92 fb 15 	sts	0x15FB, r1
    15ea:	81 e0       	ldi	r24, 0x01	; 1
    15ec:	80 93 fc 15 	sts	0x15FC, r24
    15f0:	08 95       	ret

000015f2 <SendStartCondition>:
    15f2:	80 91 bc 00 	lds	r24, 0x00BC
    15f6:	8f 75       	andi	r24, 0x5F	; 95
    15f8:	80 62       	ori	r24, 0x20	; 32
    15fa:	80 93 bc 00 	sts	0x00BC, r24
    15fe:	80 91 bc 00 	lds	r24, 0x00BC
    1602:	80 68       	ori	r24, 0x80	; 128
    1604:	80 93 bc 00 	sts	0x00BC, r24
    1608:	80 91 bc 00 	lds	r24, 0x00BC
    160c:	87 ff       	sbrs	r24, 7
    160e:	fc cf       	rjmp	.-8      	; 0x1608 <SendStartCondition+0x16>
    1610:	80 91 bc 00 	lds	r24, 0x00BC
    1614:	8f 75       	andi	r24, 0x5F	; 95
    1616:	80 93 bc 00 	sts	0x00BC, r24
    161a:	80 91 fb 15 	lds	r24, 0x15FB
    161e:	90 91 b9 00 	lds	r25, 0x00B9
    1622:	98 7f       	andi	r25, 0xF8	; 248
    1624:	88 23       	and	r24, r24
    1626:	21 f0       	breq	.+8      	; 0x1630 <SendStartCondition+0x3e>
    1628:	81 e0       	ldi	r24, 0x01	; 1
    162a:	90 31       	cpi	r25, 0x10	; 16
    162c:	21 f4       	brne	.+8      	; 0x1636 <SendStartCondition+0x44>
    162e:	04 c0       	rjmp	.+8      	; 0x1638 <SendStartCondition+0x46>
    1630:	81 e0       	ldi	r24, 0x01	; 1
    1632:	98 30       	cpi	r25, 0x08	; 8
    1634:	09 f0       	breq	.+2      	; 0x1638 <SendStartCondition+0x46>
    1636:	80 e0       	ldi	r24, 0x00	; 0
    1638:	08 95       	ret

0000163a <SendStopCondition>:
    163a:	80 91 bc 00 	lds	r24, 0x00BC
    163e:	8f 76       	andi	r24, 0x6F	; 111
    1640:	80 61       	ori	r24, 0x10	; 16
    1642:	80 93 bc 00 	sts	0x00BC, r24
    1646:	80 91 bc 00 	lds	r24, 0x00BC
    164a:	80 68       	ori	r24, 0x80	; 128
    164c:	80 93 bc 00 	sts	0x00BC, r24
    1650:	80 91 bc 00 	lds	r24, 0x00BC
    1654:	84 ff       	sbrs	r24, 4
    1656:	fc cf       	rjmp	.-8      	; 0x1650 <SendStopCondition+0x16>
    1658:	08 95       	ret

0000165a <Transmit>:
    165a:	0f 93       	push	r16
    165c:	1f 93       	push	r17
    165e:	cf 93       	push	r28
    1660:	20 91 49 16 	lds	r18, 0x1649
    1664:	21 30       	cpi	r18, 0x01	; 1
    1666:	11 f4       	brne	.+4      	; 0x166c <Transmit+0x12>
    1668:	c8 e2       	ldi	r28, 0x28	; 40
    166a:	01 c0       	rjmp	.+2      	; 0x166e <Transmit+0x14>
    166c:	c8 eb       	ldi	r28, 0xB8	; 184
    166e:	fc 01       	movw	r30, r24
    1670:	80 e0       	ldi	r24, 0x00	; 0
    1672:	90 e0       	ldi	r25, 0x00	; 0
    1674:	dc 01       	movw	r26, r24
    1676:	8a 01       	movw	r16, r20
    1678:	9b 01       	movw	r18, r22
    167a:	01 50       	subi	r16, 0x01	; 1
    167c:	11 09       	sbc	r17, r1
    167e:	21 09       	sbc	r18, r1
    1680:	31 09       	sbc	r19, r1
    1682:	4c 2f       	mov	r20, r28
    1684:	50 e0       	ldi	r21, 0x00	; 0
    1686:	80 17       	cp	r24, r16
    1688:	91 07       	cpc	r25, r17
    168a:	a2 07       	cpc	r26, r18
    168c:	b3 07       	cpc	r27, r19
    168e:	b8 f4       	brcc	.+46     	; 0x16be <Transmit+0x64>
    1690:	61 91       	ld	r22, Z+
    1692:	60 93 bb 00 	sts	0x00BB, r22
    1696:	60 91 bc 00 	lds	r22, 0x00BC
    169a:	60 68       	ori	r22, 0x80	; 128
    169c:	60 93 bc 00 	sts	0x00BC, r22
    16a0:	60 91 bc 00 	lds	r22, 0x00BC
    16a4:	67 ff       	sbrs	r22, 7
    16a6:	fc cf       	rjmp	.-8      	; 0x16a0 <Transmit+0x46>
    16a8:	60 91 b9 00 	lds	r22, 0x00B9
    16ac:	68 7f       	andi	r22, 0xF8	; 248
    16ae:	70 e0       	ldi	r23, 0x00	; 0
    16b0:	64 17       	cp	r22, r20
    16b2:	75 07       	cpc	r23, r21
    16b4:	f1 f4       	brne	.+60     	; 0x16f2 <Transmit+0x98>
    16b6:	01 96       	adiw	r24, 0x01	; 1
    16b8:	a1 1d       	adc	r26, r1
    16ba:	b1 1d       	adc	r27, r1
    16bc:	e4 cf       	rjmp	.-56     	; 0x1686 <Transmit+0x2c>
    16be:	80 91 49 16 	lds	r24, 0x1649
    16c2:	81 11       	cpse	r24, r1
    16c4:	01 c0       	rjmp	.+2      	; 0x16c8 <Transmit+0x6e>
    16c6:	c0 ec       	ldi	r28, 0xC0	; 192
    16c8:	80 81       	ld	r24, Z
    16ca:	80 93 bb 00 	sts	0x00BB, r24
    16ce:	80 91 bc 00 	lds	r24, 0x00BC
    16d2:	80 68       	ori	r24, 0x80	; 128
    16d4:	80 93 bc 00 	sts	0x00BC, r24
    16d8:	80 91 bc 00 	lds	r24, 0x00BC
    16dc:	87 ff       	sbrs	r24, 7
    16de:	fc cf       	rjmp	.-8      	; 0x16d8 <Transmit+0x7e>
    16e0:	20 91 b9 00 	lds	r18, 0x00B9
    16e4:	28 7f       	andi	r18, 0xF8	; 248
    16e6:	30 e0       	ldi	r19, 0x00	; 0
    16e8:	8c 2f       	mov	r24, r28
    16ea:	90 e0       	ldi	r25, 0x00	; 0
    16ec:	28 17       	cp	r18, r24
    16ee:	39 07       	cpc	r19, r25
    16f0:	99 f0       	breq	.+38     	; 0x1718 <Transmit+0xbe>
    16f2:	80 91 b9 00 	lds	r24, 0x00B9
    16f6:	88 7f       	andi	r24, 0xF8	; 248
    16f8:	1f 92       	push	r1
    16fa:	8f 93       	push	r24
    16fc:	8e e4       	ldi	r24, 0x4E	; 78
    16fe:	99 e0       	ldi	r25, 0x09	; 9
    1700:	9f 93       	push	r25
    1702:	8f 93       	push	r24
    1704:	81 e0       	ldi	r24, 0x01	; 1
    1706:	8f 93       	push	r24
    1708:	65 d8       	rcall	.-3894   	; 0x7d4 <SendTrace>
    170a:	0f 90       	pop	r0
    170c:	0f 90       	pop	r0
    170e:	0f 90       	pop	r0
    1710:	0f 90       	pop	r0
    1712:	0f 90       	pop	r0
    1714:	80 e0       	ldi	r24, 0x00	; 0
    1716:	01 c0       	rjmp	.+2      	; 0x171a <Transmit+0xc0>
    1718:	81 e0       	ldi	r24, 0x01	; 1
    171a:	cf 91       	pop	r28
    171c:	1f 91       	pop	r17
    171e:	0f 91       	pop	r16
    1720:	08 95       	ret

00001722 <TwiMasterTransmit>:
    1722:	cf 92       	push	r12
    1724:	df 92       	push	r13
    1726:	ef 92       	push	r14
    1728:	ff 92       	push	r15
    172a:	0f 93       	push	r16
    172c:	cf 93       	push	r28
    172e:	df 93       	push	r29
    1730:	00 d0       	rcall	.+0      	; 0x1732 <TwiMasterTransmit+0x10>
    1732:	00 d0       	rcall	.+0      	; 0x1734 <TwiMasterTransmit+0x12>
    1734:	cd b7       	in	r28, 0x3d	; 61
    1736:	de b7       	in	r29, 0x3e	; 62
    1738:	7c 01       	movw	r14, r24
    173a:	69 01       	movw	r12, r18
    173c:	49 83       	std	Y+1, r20	; 0x01
    173e:	5a 83       	std	Y+2, r21	; 0x02
    1740:	6b 83       	std	Y+3, r22	; 0x03
    1742:	7c 83       	std	Y+4, r23	; 0x04
    1744:	56 df       	rcall	.-340    	; 0x15f2 <SendStartCondition>
    1746:	49 81       	ldd	r20, Y+1	; 0x01
    1748:	5a 81       	ldd	r21, Y+2	; 0x02
    174a:	6b 81       	ldd	r22, Y+3	; 0x03
    174c:	7c 81       	ldd	r23, Y+4	; 0x04
    174e:	81 11       	cpse	r24, r1
    1750:	08 c0       	rjmp	.+16     	; 0x1762 <TwiMasterTransmit+0x40>
    1752:	80 91 b9 00 	lds	r24, 0x00B9
    1756:	88 7f       	andi	r24, 0xF8	; 248
    1758:	1f 92       	push	r1
    175a:	8f 93       	push	r24
    175c:	84 e8       	ldi	r24, 0x84	; 132
    175e:	99 e0       	ldi	r25, 0x09	; 9
    1760:	1d c0       	rjmp	.+58     	; 0x179c <TwiMasterTransmit+0x7a>
    1762:	10 92 fb 15 	sts	0x15FB, r1
    1766:	f6 01       	movw	r30, r12
    1768:	80 81       	ld	r24, Z
    176a:	8e 7f       	andi	r24, 0xFE	; 254
    176c:	80 83       	st	Z, r24
    176e:	80 93 bb 00 	sts	0x00BB, r24
    1772:	80 91 bc 00 	lds	r24, 0x00BC
    1776:	80 68       	ori	r24, 0x80	; 128
    1778:	80 93 bc 00 	sts	0x00BC, r24
    177c:	80 91 bc 00 	lds	r24, 0x00BC
    1780:	87 ff       	sbrs	r24, 7
    1782:	fc cf       	rjmp	.-8      	; 0x177c <TwiMasterTransmit+0x5a>
    1784:	80 91 b9 00 	lds	r24, 0x00B9
    1788:	88 7f       	andi	r24, 0xF8	; 248
    178a:	88 31       	cpi	r24, 0x18	; 24
    178c:	99 f0       	breq	.+38     	; 0x17b4 <TwiMasterTransmit+0x92>
    178e:	80 91 b9 00 	lds	r24, 0x00B9
    1792:	88 7f       	andi	r24, 0xF8	; 248
    1794:	1f 92       	push	r1
    1796:	8f 93       	push	r24
    1798:	8e ec       	ldi	r24, 0xCE	; 206
    179a:	99 e0       	ldi	r25, 0x09	; 9
    179c:	9f 93       	push	r25
    179e:	8f 93       	push	r24
    17a0:	81 e0       	ldi	r24, 0x01	; 1
    17a2:	8f 93       	push	r24
    17a4:	17 d8       	rcall	.-4050   	; 0x7d4 <SendTrace>
    17a6:	0f 90       	pop	r0
    17a8:	0f 90       	pop	r0
    17aa:	0f 90       	pop	r0
    17ac:	0f 90       	pop	r0
    17ae:	0f 90       	pop	r0
    17b0:	80 e0       	ldi	r24, 0x00	; 0
    17b2:	0b c0       	rjmp	.+22     	; 0x17ca <TwiMasterTransmit+0xa8>
    17b4:	c7 01       	movw	r24, r14
    17b6:	51 df       	rcall	.-350    	; 0x165a <Transmit>
    17b8:	00 23       	and	r16, r16
    17ba:	21 f0       	breq	.+8      	; 0x17c4 <TwiMasterTransmit+0xa2>
    17bc:	89 83       	std	Y+1, r24	; 0x01
    17be:	3d df       	rcall	.-390    	; 0x163a <SendStopCondition>
    17c0:	89 81       	ldd	r24, Y+1	; 0x01
    17c2:	03 c0       	rjmp	.+6      	; 0x17ca <TwiMasterTransmit+0xa8>
    17c4:	91 e0       	ldi	r25, 0x01	; 1
    17c6:	90 93 fb 15 	sts	0x15FB, r25
    17ca:	0f 90       	pop	r0
    17cc:	0f 90       	pop	r0
    17ce:	0f 90       	pop	r0
    17d0:	0f 90       	pop	r0
    17d2:	df 91       	pop	r29
    17d4:	cf 91       	pop	r28
    17d6:	0f 91       	pop	r16
    17d8:	ff 90       	pop	r15
    17da:	ef 90       	pop	r14
    17dc:	df 90       	pop	r13
    17de:	cf 90       	pop	r12
    17e0:	08 95       	ret

000017e2 <TwiTransmit>:
    17e2:	0f 93       	push	r16
    17e4:	e0 91 fc 15 	lds	r30, 0x15FC
    17e8:	ee 23       	and	r30, r30
    17ea:	09 f4       	brne	.+2      	; 0x17ee <TwiTransmit+0xc>
    17ec:	4a c0       	rjmp	.+148    	; 0x1882 <TwiTransmit+0xa0>
    17ee:	00 97       	sbiw	r24, 0x00	; 0
    17f0:	09 f4       	brne	.+2      	; 0x17f4 <TwiTransmit+0x12>
    17f2:	47 c0       	rjmp	.+142    	; 0x1882 <TwiTransmit+0xa0>
    17f4:	e0 91 49 16 	lds	r30, 0x1649
    17f8:	e1 30       	cpi	r30, 0x01	; 1
    17fa:	81 f4       	brne	.+32     	; 0x181c <TwiTransmit+0x3a>
    17fc:	21 15       	cp	r18, r1
    17fe:	31 05       	cpc	r19, r1
    1800:	59 f4       	brne	.+22     	; 0x1818 <TwiTransmit+0x36>
    1802:	85 e2       	ldi	r24, 0x25	; 37
    1804:	9a e0       	ldi	r25, 0x0A	; 10
    1806:	9f 93       	push	r25
    1808:	8f 93       	push	r24
    180a:	ef 93       	push	r30
    180c:	0e 94 ea 03 	call	0x7d4	; 0x7d4 <SendTrace>
    1810:	0f 90       	pop	r0
    1812:	0f 90       	pop	r0
    1814:	0f 90       	pop	r0
    1816:	35 c0       	rjmp	.+106    	; 0x1882 <TwiTransmit+0xa0>
    1818:	84 df       	rcall	.-248    	; 0x1722 <TwiMasterTransmit>
    181a:	34 c0       	rjmp	.+104    	; 0x1884 <TwiTransmit+0xa2>
    181c:	20 91 bc 00 	lds	r18, 0x00BC
    1820:	20 68       	ori	r18, 0x80	; 128
    1822:	20 93 bc 00 	sts	0x00BC, r18
    1826:	20 91 bc 00 	lds	r18, 0x00BC
    182a:	27 ff       	sbrs	r18, 7
    182c:	fc cf       	rjmp	.-8      	; 0x1826 <TwiTransmit+0x44>
    182e:	20 91 b9 00 	lds	r18, 0x00B9
    1832:	28 7f       	andi	r18, 0xF8	; 248
    1834:	20 3a       	cpi	r18, 0xA0	; 160
    1836:	b9 f0       	breq	.+46     	; 0x1866 <TwiTransmit+0x84>
    1838:	20 91 b9 00 	lds	r18, 0x00B9
    183c:	28 7f       	andi	r18, 0xF8	; 248
    183e:	28 3a       	cpi	r18, 0xA8	; 168
    1840:	e1 f0       	breq	.+56     	; 0x187a <TwiTransmit+0x98>
    1842:	80 91 b9 00 	lds	r24, 0x00B9
    1846:	1f 92       	push	r1
    1848:	8f 93       	push	r24
    184a:	88 e4       	ldi	r24, 0x48	; 72
    184c:	9a e0       	ldi	r25, 0x0A	; 10
    184e:	9f 93       	push	r25
    1850:	8f 93       	push	r24
    1852:	81 e0       	ldi	r24, 0x01	; 1
    1854:	8f 93       	push	r24
    1856:	0e 94 ea 03 	call	0x7d4	; 0x7d4 <SendTrace>
    185a:	0f 90       	pop	r0
    185c:	0f 90       	pop	r0
    185e:	0f 90       	pop	r0
    1860:	0f 90       	pop	r0
    1862:	0f 90       	pop	r0
    1864:	0e c0       	rjmp	.+28     	; 0x1882 <TwiTransmit+0xa0>
    1866:	20 91 bc 00 	lds	r18, 0x00BC
    186a:	20 68       	ori	r18, 0x80	; 128
    186c:	20 93 bc 00 	sts	0x00BC, r18
    1870:	20 91 bc 00 	lds	r18, 0x00BC
    1874:	27 ff       	sbrs	r18, 7
    1876:	fc cf       	rjmp	.-8      	; 0x1870 <TwiTransmit+0x8e>
    1878:	df cf       	rjmp	.-66     	; 0x1838 <TwiTransmit+0x56>
    187a:	39 9a       	sbi	0x07, 1	; 7
    187c:	ee de       	rcall	.-548    	; 0x165a <Transmit>
    187e:	39 98       	cbi	0x07, 1	; 7
    1880:	01 c0       	rjmp	.+2      	; 0x1884 <TwiTransmit+0xa2>
    1882:	80 e0       	ldi	r24, 0x00	; 0
    1884:	0f 91       	pop	r16
    1886:	08 95       	ret

00001888 <Receive>:
    1888:	cf 92       	push	r12
    188a:	df 92       	push	r13
    188c:	ef 92       	push	r14
    188e:	ff 92       	push	r15
    1890:	0f 93       	push	r16
    1892:	1f 93       	push	r17
    1894:	fc 01       	movw	r30, r24
    1896:	80 91 49 16 	lds	r24, 0x1649
    189a:	81 30       	cpi	r24, 0x01	; 1
    189c:	11 f4       	brne	.+4      	; 0x18a2 <Receive+0x1a>
    189e:	80 e5       	ldi	r24, 0x50	; 80
    18a0:	01 c0       	rjmp	.+2      	; 0x18a4 <Receive+0x1c>
    18a2:	80 e8       	ldi	r24, 0x80	; 128
    18a4:	00 e0       	ldi	r16, 0x00	; 0
    18a6:	10 e0       	ldi	r17, 0x00	; 0
    18a8:	98 01       	movw	r18, r16
    18aa:	6a 01       	movw	r12, r20
    18ac:	7b 01       	movw	r14, r22
    18ae:	91 e0       	ldi	r25, 0x01	; 1
    18b0:	c9 1a       	sub	r12, r25
    18b2:	d1 08       	sbc	r13, r1
    18b4:	e1 08       	sbc	r14, r1
    18b6:	f1 08       	sbc	r15, r1
    18b8:	48 2f       	mov	r20, r24
    18ba:	50 e0       	ldi	r21, 0x00	; 0
    18bc:	0c 15       	cp	r16, r12
    18be:	1d 05       	cpc	r17, r13
    18c0:	2e 05       	cpc	r18, r14
    18c2:	3f 05       	cpc	r19, r15
    18c4:	c0 f4       	brcc	.+48     	; 0x18f6 <Receive+0x6e>
    18c6:	90 91 bc 00 	lds	r25, 0x00BC
    18ca:	90 68       	ori	r25, 0x80	; 128
    18cc:	90 93 bc 00 	sts	0x00BC, r25
    18d0:	90 91 bc 00 	lds	r25, 0x00BC
    18d4:	97 ff       	sbrs	r25, 7
    18d6:	fc cf       	rjmp	.-8      	; 0x18d0 <Receive+0x48>
    18d8:	60 91 b9 00 	lds	r22, 0x00B9
    18dc:	68 7f       	andi	r22, 0xF8	; 248
    18de:	70 e0       	ldi	r23, 0x00	; 0
    18e0:	64 17       	cp	r22, r20
    18e2:	75 07       	cpc	r23, r21
    18e4:	19 f5       	brne	.+70     	; 0x192c <Receive+0xa4>
    18e6:	90 91 bb 00 	lds	r25, 0x00BB
    18ea:	91 93       	st	Z+, r25
    18ec:	0f 5f       	subi	r16, 0xFF	; 255
    18ee:	1f 4f       	sbci	r17, 0xFF	; 255
    18f0:	2f 4f       	sbci	r18, 0xFF	; 255
    18f2:	3f 4f       	sbci	r19, 0xFF	; 255
    18f4:	e3 cf       	rjmp	.-58     	; 0x18bc <Receive+0x34>
    18f6:	90 91 49 16 	lds	r25, 0x1649
    18fa:	91 30       	cpi	r25, 0x01	; 1
    18fc:	31 f4       	brne	.+12     	; 0x190a <Receive+0x82>
    18fe:	80 91 bc 00 	lds	r24, 0x00BC
    1902:	8f 73       	andi	r24, 0x3F	; 63
    1904:	80 93 bc 00 	sts	0x00BC, r24
    1908:	88 e5       	ldi	r24, 0x58	; 88
    190a:	90 91 bc 00 	lds	r25, 0x00BC
    190e:	90 68       	ori	r25, 0x80	; 128
    1910:	90 93 bc 00 	sts	0x00BC, r25
    1914:	90 91 bc 00 	lds	r25, 0x00BC
    1918:	97 ff       	sbrs	r25, 7
    191a:	fc cf       	rjmp	.-8      	; 0x1914 <Receive+0x8c>
    191c:	20 91 b9 00 	lds	r18, 0x00B9
    1920:	28 7f       	andi	r18, 0xF8	; 248
    1922:	30 e0       	ldi	r19, 0x00	; 0
    1924:	90 e0       	ldi	r25, 0x00	; 0
    1926:	28 17       	cp	r18, r24
    1928:	39 07       	cpc	r19, r25
    192a:	a1 f0       	breq	.+40     	; 0x1954 <Receive+0xcc>
    192c:	80 91 b9 00 	lds	r24, 0x00B9
    1930:	88 7f       	andi	r24, 0xF8	; 248
    1932:	1f 92       	push	r1
    1934:	8f 93       	push	r24
    1936:	82 e8       	ldi	r24, 0x82	; 130
    1938:	9a e0       	ldi	r25, 0x0A	; 10
    193a:	9f 93       	push	r25
    193c:	8f 93       	push	r24
    193e:	81 e0       	ldi	r24, 0x01	; 1
    1940:	8f 93       	push	r24
    1942:	0e 94 ea 03 	call	0x7d4	; 0x7d4 <SendTrace>
    1946:	0f 90       	pop	r0
    1948:	0f 90       	pop	r0
    194a:	0f 90       	pop	r0
    194c:	0f 90       	pop	r0
    194e:	0f 90       	pop	r0
    1950:	80 e0       	ldi	r24, 0x00	; 0
    1952:	04 c0       	rjmp	.+8      	; 0x195c <Receive+0xd4>
    1954:	80 91 bb 00 	lds	r24, 0x00BB
    1958:	80 83       	st	Z, r24
    195a:	81 e0       	ldi	r24, 0x01	; 1
    195c:	90 91 bc 00 	lds	r25, 0x00BC
    1960:	9f 73       	andi	r25, 0x3F	; 63
    1962:	90 64       	ori	r25, 0x40	; 64
    1964:	90 93 bc 00 	sts	0x00BC, r25
    1968:	1f 91       	pop	r17
    196a:	0f 91       	pop	r16
    196c:	ff 90       	pop	r15
    196e:	ef 90       	pop	r14
    1970:	df 90       	pop	r13
    1972:	cf 90       	pop	r12
    1974:	08 95       	ret

00001976 <TwiMasterReceive>:
    1976:	cf 92       	push	r12
    1978:	df 92       	push	r13
    197a:	ef 92       	push	r14
    197c:	ff 92       	push	r15
    197e:	0f 93       	push	r16
    1980:	cf 93       	push	r28
    1982:	df 93       	push	r29
    1984:	00 d0       	rcall	.+0      	; 0x1986 <TwiMasterReceive+0x10>
    1986:	00 d0       	rcall	.+0      	; 0x1988 <TwiMasterReceive+0x12>
    1988:	cd b7       	in	r28, 0x3d	; 61
    198a:	de b7       	in	r29, 0x3e	; 62
    198c:	7c 01       	movw	r14, r24
    198e:	69 01       	movw	r12, r18
    1990:	49 83       	std	Y+1, r20	; 0x01
    1992:	5a 83       	std	Y+2, r21	; 0x02
    1994:	6b 83       	std	Y+3, r22	; 0x03
    1996:	7c 83       	std	Y+4, r23	; 0x04
    1998:	2c de       	rcall	.-936    	; 0x15f2 <SendStartCondition>
    199a:	49 81       	ldd	r20, Y+1	; 0x01
    199c:	5a 81       	ldd	r21, Y+2	; 0x02
    199e:	6b 81       	ldd	r22, Y+3	; 0x03
    19a0:	7c 81       	ldd	r23, Y+4	; 0x04
    19a2:	81 11       	cpse	r24, r1
    19a4:	08 c0       	rjmp	.+16     	; 0x19b6 <TwiMasterReceive+0x40>
    19a6:	80 91 b9 00 	lds	r24, 0x00B9
    19aa:	88 7f       	andi	r24, 0xF8	; 248
    19ac:	1f 92       	push	r1
    19ae:	8f 93       	push	r24
    19b0:	84 eb       	ldi	r24, 0xB4	; 180
    19b2:	9a e0       	ldi	r25, 0x0A	; 10
    19b4:	1d c0       	rjmp	.+58     	; 0x19f0 <TwiMasterReceive+0x7a>
    19b6:	10 92 fb 15 	sts	0x15FB, r1
    19ba:	f6 01       	movw	r30, r12
    19bc:	80 81       	ld	r24, Z
    19be:	81 60       	ori	r24, 0x01	; 1
    19c0:	80 83       	st	Z, r24
    19c2:	80 93 bb 00 	sts	0x00BB, r24
    19c6:	80 91 bc 00 	lds	r24, 0x00BC
    19ca:	80 68       	ori	r24, 0x80	; 128
    19cc:	80 93 bc 00 	sts	0x00BC, r24
    19d0:	80 91 bc 00 	lds	r24, 0x00BC
    19d4:	87 ff       	sbrs	r24, 7
    19d6:	fc cf       	rjmp	.-8      	; 0x19d0 <TwiMasterReceive+0x5a>
    19d8:	80 91 b9 00 	lds	r24, 0x00B9
    19dc:	88 7f       	andi	r24, 0xF8	; 248
    19de:	80 34       	cpi	r24, 0x40	; 64
    19e0:	a1 f0       	breq	.+40     	; 0x1a0a <TwiMasterReceive+0x94>
    19e2:	80 91 b9 00 	lds	r24, 0x00B9
    19e6:	88 7f       	andi	r24, 0xF8	; 248
    19e8:	1f 92       	push	r1
    19ea:	8f 93       	push	r24
    19ec:	8d ef       	ldi	r24, 0xFD	; 253
    19ee:	9a e0       	ldi	r25, 0x0A	; 10
    19f0:	9f 93       	push	r25
    19f2:	8f 93       	push	r24
    19f4:	81 e0       	ldi	r24, 0x01	; 1
    19f6:	8f 93       	push	r24
    19f8:	0e 94 ea 03 	call	0x7d4	; 0x7d4 <SendTrace>
    19fc:	0f 90       	pop	r0
    19fe:	0f 90       	pop	r0
    1a00:	0f 90       	pop	r0
    1a02:	0f 90       	pop	r0
    1a04:	0f 90       	pop	r0
    1a06:	80 e0       	ldi	r24, 0x00	; 0
    1a08:	0b c0       	rjmp	.+22     	; 0x1a20 <TwiMasterReceive+0xaa>
    1a0a:	c7 01       	movw	r24, r14
    1a0c:	3d df       	rcall	.-390    	; 0x1888 <Receive>
    1a0e:	00 23       	and	r16, r16
    1a10:	21 f0       	breq	.+8      	; 0x1a1a <TwiMasterReceive+0xa4>
    1a12:	89 83       	std	Y+1, r24	; 0x01
    1a14:	12 de       	rcall	.-988    	; 0x163a <SendStopCondition>
    1a16:	89 81       	ldd	r24, Y+1	; 0x01
    1a18:	03 c0       	rjmp	.+6      	; 0x1a20 <TwiMasterReceive+0xaa>
    1a1a:	91 e0       	ldi	r25, 0x01	; 1
    1a1c:	90 93 fb 15 	sts	0x15FB, r25
    1a20:	0f 90       	pop	r0
    1a22:	0f 90       	pop	r0
    1a24:	0f 90       	pop	r0
    1a26:	0f 90       	pop	r0
    1a28:	df 91       	pop	r29
    1a2a:	cf 91       	pop	r28
    1a2c:	0f 91       	pop	r16
    1a2e:	ff 90       	pop	r15
    1a30:	ef 90       	pop	r14
    1a32:	df 90       	pop	r13
    1a34:	cf 90       	pop	r12
    1a36:	08 95       	ret

00001a38 <TwiReceive>:
    1a38:	0f 93       	push	r16
    1a3a:	e0 91 fc 15 	lds	r30, 0x15FC
    1a3e:	ee 23       	and	r30, r30
    1a40:	d1 f1       	breq	.+116    	; 0x1ab6 <TwiReceive+0x7e>
    1a42:	00 97       	sbiw	r24, 0x00	; 0
    1a44:	c1 f1       	breq	.+112    	; 0x1ab6 <TwiReceive+0x7e>
    1a46:	e0 91 49 16 	lds	r30, 0x1649
    1a4a:	e1 30       	cpi	r30, 0x01	; 1
    1a4c:	91 f4       	brne	.+36     	; 0x1a72 <TwiReceive+0x3a>
    1a4e:	21 15       	cp	r18, r1
    1a50:	31 05       	cpc	r19, r1
    1a52:	59 f4       	brne	.+22     	; 0x1a6a <TwiReceive+0x32>
    1a54:	82 e5       	ldi	r24, 0x52	; 82
    1a56:	9b e0       	ldi	r25, 0x0B	; 11
    1a58:	9f 93       	push	r25
    1a5a:	8f 93       	push	r24
    1a5c:	ef 93       	push	r30
    1a5e:	0e 94 ea 03 	call	0x7d4	; 0x7d4 <SendTrace>
    1a62:	0f 90       	pop	r0
    1a64:	0f 90       	pop	r0
    1a66:	0f 90       	pop	r0
    1a68:	26 c0       	rjmp	.+76     	; 0x1ab6 <TwiReceive+0x7e>
    1a6a:	39 98       	cbi	0x07, 1	; 7
    1a6c:	84 df       	rcall	.-248    	; 0x1976 <TwiMasterReceive>
    1a6e:	39 9a       	sbi	0x07, 1	; 7
    1a70:	23 c0       	rjmp	.+70     	; 0x1ab8 <TwiReceive+0x80>
    1a72:	20 91 bc 00 	lds	r18, 0x00BC
    1a76:	20 68       	ori	r18, 0x80	; 128
    1a78:	20 93 bc 00 	sts	0x00BC, r18
    1a7c:	20 91 bc 00 	lds	r18, 0x00BC
    1a80:	27 ff       	sbrs	r18, 7
    1a82:	fc cf       	rjmp	.-8      	; 0x1a7c <TwiReceive+0x44>
    1a84:	20 91 b9 00 	lds	r18, 0x00B9
    1a88:	28 7f       	andi	r18, 0xF8	; 248
    1a8a:	20 36       	cpi	r18, 0x60	; 96
    1a8c:	91 f0       	breq	.+36     	; 0x1ab2 <TwiReceive+0x7a>
    1a8e:	80 91 b9 00 	lds	r24, 0x00B9
    1a92:	1f 92       	push	r1
    1a94:	8f 93       	push	r24
    1a96:	84 e7       	ldi	r24, 0x74	; 116
    1a98:	9b e0       	ldi	r25, 0x0B	; 11
    1a9a:	9f 93       	push	r25
    1a9c:	8f 93       	push	r24
    1a9e:	81 e0       	ldi	r24, 0x01	; 1
    1aa0:	8f 93       	push	r24
    1aa2:	0e 94 ea 03 	call	0x7d4	; 0x7d4 <SendTrace>
    1aa6:	0f 90       	pop	r0
    1aa8:	0f 90       	pop	r0
    1aaa:	0f 90       	pop	r0
    1aac:	0f 90       	pop	r0
    1aae:	0f 90       	pop	r0
    1ab0:	02 c0       	rjmp	.+4      	; 0x1ab6 <TwiReceive+0x7e>
    1ab2:	0f 91       	pop	r16
    1ab4:	e9 ce       	rjmp	.-558    	; 0x1888 <Receive>
    1ab6:	80 e0       	ldi	r24, 0x00	; 0
    1ab8:	0f 91       	pop	r16
    1aba:	08 95       	ret

00001abc <ReadADXL345Register>:
    1abc:	af 92       	push	r10
    1abe:	bf 92       	push	r11
    1ac0:	cf 92       	push	r12
    1ac2:	df 92       	push	r13
    1ac4:	ef 92       	push	r14
    1ac6:	ff 92       	push	r15
    1ac8:	0f 93       	push	r16
    1aca:	cf 93       	push	r28
    1acc:	df 93       	push	r29
    1ace:	00 d0       	rcall	.+0      	; 0x1ad0 <ReadADXL345Register+0x14>
    1ad0:	cd b7       	in	r28, 0x3d	; 61
    1ad2:	de b7       	in	r29, 0x3e	; 62
    1ad4:	89 83       	std	Y+1, r24	; 0x01
    1ad6:	5b 01       	movw	r10, r22
    1ad8:	69 01       	movw	r12, r18
    1ada:	7a 01       	movw	r14, r20
    1adc:	00 e0       	ldi	r16, 0x00	; 0
    1ade:	2a e4       	ldi	r18, 0x4A	; 74
    1ae0:	36 e1       	ldi	r19, 0x16	; 22
    1ae2:	41 e0       	ldi	r20, 0x01	; 1
    1ae4:	50 e0       	ldi	r21, 0x00	; 0
    1ae6:	60 e0       	ldi	r22, 0x00	; 0
    1ae8:	70 e0       	ldi	r23, 0x00	; 0
    1aea:	ce 01       	movw	r24, r28
    1aec:	01 96       	adiw	r24, 0x01	; 1
    1aee:	79 de       	rcall	.-782    	; 0x17e2 <TwiTransmit>
    1af0:	81 11       	cpse	r24, r1
    1af2:	03 c0       	rjmp	.+6      	; 0x1afa <ReadADXL345Register+0x3e>
    1af4:	25 eb       	ldi	r18, 0xB5	; 181
    1af6:	3b e0       	ldi	r19, 0x0B	; 11
    1af8:	0b c0       	rjmp	.+22     	; 0x1b10 <ReadADXL345Register+0x54>
    1afa:	01 e0       	ldi	r16, 0x01	; 1
    1afc:	2a e4       	ldi	r18, 0x4A	; 74
    1afe:	36 e1       	ldi	r19, 0x16	; 22
    1b00:	b7 01       	movw	r22, r14
    1b02:	a6 01       	movw	r20, r12
    1b04:	c5 01       	movw	r24, r10
    1b06:	98 df       	rcall	.-208    	; 0x1a38 <TwiReceive>
    1b08:	81 11       	cpse	r24, r1
    1b0a:	0d c0       	rjmp	.+26     	; 0x1b26 <ReadADXL345Register+0x6a>
    1b0c:	2d ed       	ldi	r18, 0xDD	; 221
    1b0e:	3b e0       	ldi	r19, 0x0B	; 11
    1b10:	3f 93       	push	r19
    1b12:	2f 93       	push	r18
    1b14:	91 e0       	ldi	r25, 0x01	; 1
    1b16:	9f 93       	push	r25
    1b18:	8a 83       	std	Y+2, r24	; 0x02
    1b1a:	0e 94 ea 03 	call	0x7d4	; 0x7d4 <SendTrace>
    1b1e:	0f 90       	pop	r0
    1b20:	0f 90       	pop	r0
    1b22:	0f 90       	pop	r0
    1b24:	8a 81       	ldd	r24, Y+2	; 0x02
    1b26:	0f 90       	pop	r0
    1b28:	0f 90       	pop	r0
    1b2a:	df 91       	pop	r29
    1b2c:	cf 91       	pop	r28
    1b2e:	0f 91       	pop	r16
    1b30:	ff 90       	pop	r15
    1b32:	ef 90       	pop	r14
    1b34:	df 90       	pop	r13
    1b36:	cf 90       	pop	r12
    1b38:	bf 90       	pop	r11
    1b3a:	af 90       	pop	r10
    1b3c:	08 95       	ret

00001b3e <ReadADXL345InterruptSource>:
    1b3e:	cf 93       	push	r28
    1b40:	df 93       	push	r29
    1b42:	1f 92       	push	r1
    1b44:	cd b7       	in	r28, 0x3d	; 61
    1b46:	de b7       	in	r29, 0x3e	; 62
    1b48:	20 91 fd 15 	lds	r18, 0x15FD
    1b4c:	21 11       	cpse	r18, r1
    1b4e:	0d c0       	rjmp	.+26     	; 0x1b6a <ReadADXL345InterruptSource+0x2c>
    1b50:	83 e0       	ldi	r24, 0x03	; 3
    1b52:	9c e0       	ldi	r25, 0x0C	; 12
    1b54:	9f 93       	push	r25
    1b56:	8f 93       	push	r24
    1b58:	81 e0       	ldi	r24, 0x01	; 1
    1b5a:	8f 93       	push	r24
    1b5c:	0e 94 ea 03 	call	0x7d4	; 0x7d4 <SendTrace>
    1b60:	0f 90       	pop	r0
    1b62:	0f 90       	pop	r0
    1b64:	0f 90       	pop	r0
    1b66:	80 e0       	ldi	r24, 0x00	; 0
    1b68:	16 c0       	rjmp	.+44     	; 0x1b96 <ReadADXL345InterruptSource+0x58>
    1b6a:	21 e0       	ldi	r18, 0x01	; 1
    1b6c:	30 e0       	ldi	r19, 0x00	; 0
    1b6e:	40 e0       	ldi	r20, 0x00	; 0
    1b70:	50 e0       	ldi	r21, 0x00	; 0
    1b72:	bc 01       	movw	r22, r24
    1b74:	80 e3       	ldi	r24, 0x30	; 48
    1b76:	a2 df       	rcall	.-188    	; 0x1abc <ReadADXL345Register>
    1b78:	81 11       	cpse	r24, r1
    1b7a:	0d c0       	rjmp	.+26     	; 0x1b96 <ReadADXL345InterruptSource+0x58>
    1b7c:	20 e9       	ldi	r18, 0x90	; 144
    1b7e:	3c e0       	ldi	r19, 0x0C	; 12
    1b80:	3f 93       	push	r19
    1b82:	2f 93       	push	r18
    1b84:	91 e0       	ldi	r25, 0x01	; 1
    1b86:	9f 93       	push	r25
    1b88:	89 83       	std	Y+1, r24	; 0x01
    1b8a:	0e 94 ea 03 	call	0x7d4	; 0x7d4 <SendTrace>
    1b8e:	0f 90       	pop	r0
    1b90:	0f 90       	pop	r0
    1b92:	0f 90       	pop	r0
    1b94:	89 81       	ldd	r24, Y+1	; 0x01
    1b96:	0f 90       	pop	r0
    1b98:	df 91       	pop	r29
    1b9a:	cf 91       	pop	r28
    1b9c:	08 95       	ret

00001b9e <ReadADXL345FifoStatus>:
    1b9e:	cf 93       	push	r28
    1ba0:	df 93       	push	r29
    1ba2:	1f 92       	push	r1
    1ba4:	cd b7       	in	r28, 0x3d	; 61
    1ba6:	de b7       	in	r29, 0x3e	; 62
    1ba8:	20 91 fd 15 	lds	r18, 0x15FD
    1bac:	21 11       	cpse	r18, r1
    1bae:	0d c0       	rjmp	.+26     	; 0x1bca <ReadADXL345FifoStatus+0x2c>
    1bb0:	83 e0       	ldi	r24, 0x03	; 3
    1bb2:	9c e0       	ldi	r25, 0x0C	; 12
    1bb4:	9f 93       	push	r25
    1bb6:	8f 93       	push	r24
    1bb8:	81 e0       	ldi	r24, 0x01	; 1
    1bba:	8f 93       	push	r24
    1bbc:	0e 94 ea 03 	call	0x7d4	; 0x7d4 <SendTrace>
    1bc0:	0f 90       	pop	r0
    1bc2:	0f 90       	pop	r0
    1bc4:	0f 90       	pop	r0
    1bc6:	80 e0       	ldi	r24, 0x00	; 0
    1bc8:	16 c0       	rjmp	.+44     	; 0x1bf6 <ReadADXL345FifoStatus+0x58>
    1bca:	21 e0       	ldi	r18, 0x01	; 1
    1bcc:	30 e0       	ldi	r19, 0x00	; 0
    1bce:	40 e0       	ldi	r20, 0x00	; 0
    1bd0:	50 e0       	ldi	r21, 0x00	; 0
    1bd2:	bc 01       	movw	r22, r24
    1bd4:	89 e3       	ldi	r24, 0x39	; 57
    1bd6:	72 df       	rcall	.-284    	; 0x1abc <ReadADXL345Register>
    1bd8:	81 11       	cpse	r24, r1
    1bda:	0d c0       	rjmp	.+26     	; 0x1bf6 <ReadADXL345FifoStatus+0x58>
    1bdc:	27 eb       	ldi	r18, 0xB7	; 183
    1bde:	3c e0       	ldi	r19, 0x0C	; 12
    1be0:	3f 93       	push	r19
    1be2:	2f 93       	push	r18
    1be4:	91 e0       	ldi	r25, 0x01	; 1
    1be6:	9f 93       	push	r25
    1be8:	89 83       	std	Y+1, r24	; 0x01
    1bea:	0e 94 ea 03 	call	0x7d4	; 0x7d4 <SendTrace>
    1bee:	0f 90       	pop	r0
    1bf0:	0f 90       	pop	r0
    1bf2:	0f 90       	pop	r0
    1bf4:	89 81       	ldd	r24, Y+1	; 0x01
    1bf6:	0f 90       	pop	r0
    1bf8:	df 91       	pop	r29
    1bfa:	cf 91       	pop	r28
    1bfc:	08 95       	ret

00001bfe <ReadADXL345RawData>:
    1bfe:	cf 93       	push	r28
    1c00:	df 93       	push	r29
    1c02:	1f 92       	push	r1
    1c04:	cd b7       	in	r28, 0x3d	; 61
    1c06:	de b7       	in	r29, 0x3e	; 62
    1c08:	20 91 fd 15 	lds	r18, 0x15FD
    1c0c:	21 11       	cpse	r18, r1
    1c0e:	0d c0       	rjmp	.+26     	; 0x1c2a <ReadADXL345RawData+0x2c>
    1c10:	83 e0       	ldi	r24, 0x03	; 3
    1c12:	9c e0       	ldi	r25, 0x0C	; 12
    1c14:	9f 93       	push	r25
    1c16:	8f 93       	push	r24
    1c18:	81 e0       	ldi	r24, 0x01	; 1
    1c1a:	8f 93       	push	r24
    1c1c:	0e 94 ea 03 	call	0x7d4	; 0x7d4 <SendTrace>
    1c20:	0f 90       	pop	r0
    1c22:	0f 90       	pop	r0
    1c24:	0f 90       	pop	r0
    1c26:	80 e0       	ldi	r24, 0x00	; 0
    1c28:	16 c0       	rjmp	.+44     	; 0x1c56 <ReadADXL345RawData+0x58>
    1c2a:	26 e0       	ldi	r18, 0x06	; 6
    1c2c:	30 e0       	ldi	r19, 0x00	; 0
    1c2e:	40 e0       	ldi	r20, 0x00	; 0
    1c30:	50 e0       	ldi	r21, 0x00	; 0
    1c32:	bc 01       	movw	r22, r24
    1c34:	82 e3       	ldi	r24, 0x32	; 50
    1c36:	42 df       	rcall	.-380    	; 0x1abc <ReadADXL345Register>
    1c38:	81 11       	cpse	r24, r1
    1c3a:	0d c0       	rjmp	.+26     	; 0x1c56 <ReadADXL345RawData+0x58>
    1c3c:	2a e0       	ldi	r18, 0x0A	; 10
    1c3e:	3d e0       	ldi	r19, 0x0D	; 13
    1c40:	3f 93       	push	r19
    1c42:	2f 93       	push	r18
    1c44:	91 e0       	ldi	r25, 0x01	; 1
    1c46:	9f 93       	push	r25
    1c48:	89 83       	std	Y+1, r24	; 0x01
    1c4a:	0e 94 ea 03 	call	0x7d4	; 0x7d4 <SendTrace>
    1c4e:	0f 90       	pop	r0
    1c50:	0f 90       	pop	r0
    1c52:	0f 90       	pop	r0
    1c54:	89 81       	ldd	r24, Y+1	; 0x01
    1c56:	0f 90       	pop	r0
    1c58:	df 91       	pop	r29
    1c5a:	cf 91       	pop	r28
    1c5c:	08 95       	ret

00001c5e <FlushADXL345Fifo>:
    1c5e:	ef 92       	push	r14
    1c60:	ff 92       	push	r15
    1c62:	0f 93       	push	r16
    1c64:	1f 93       	push	r17
    1c66:	cf 93       	push	r28
    1c68:	df 93       	push	r29
    1c6a:	cd b7       	in	r28, 0x3d	; 61
    1c6c:	de b7       	in	r29, 0x3e	; 62
    1c6e:	27 97       	sbiw	r28, 0x07	; 7
    1c70:	0f b6       	in	r0, 0x3f	; 63
    1c72:	f8 94       	cli
    1c74:	de bf       	out	0x3e, r29	; 62
    1c76:	0f be       	out	0x3f, r0	; 63
    1c78:	cd bf       	out	0x3d, r28	; 61
    1c7a:	ce 01       	movw	r24, r28
    1c7c:	07 96       	adiw	r24, 0x07	; 7
    1c7e:	8f df       	rcall	.-226    	; 0x1b9e <ReadADXL345FifoStatus>
    1c80:	88 23       	and	r24, r24
    1c82:	f1 f0       	breq	.+60     	; 0x1cc0 <FlushADXL345Fifo+0x62>
    1c84:	f1 2c       	mov	r15, r1
    1c86:	0b e2       	ldi	r16, 0x2B	; 43
    1c88:	1d e0       	ldi	r17, 0x0D	; 13
    1c8a:	ee 24       	eor	r14, r14
    1c8c:	e3 94       	inc	r14
    1c8e:	2f 2d       	mov	r18, r15
    1c90:	30 e0       	ldi	r19, 0x00	; 0
    1c92:	8f 81       	ldd	r24, Y+7	; 0x07
    1c94:	8f 73       	andi	r24, 0x3F	; 63
    1c96:	90 e0       	ldi	r25, 0x00	; 0
    1c98:	28 17       	cp	r18, r24
    1c9a:	39 07       	cpc	r19, r25
    1c9c:	7c f4       	brge	.+30     	; 0x1cbc <FlushADXL345Fifo+0x5e>
    1c9e:	ce 01       	movw	r24, r28
    1ca0:	01 96       	adiw	r24, 0x01	; 1
    1ca2:	ad df       	rcall	.-166    	; 0x1bfe <ReadADXL345RawData>
    1ca4:	81 11       	cpse	r24, r1
    1ca6:	08 c0       	rjmp	.+16     	; 0x1cb8 <FlushADXL345Fifo+0x5a>
    1ca8:	1f 93       	push	r17
    1caa:	0f 93       	push	r16
    1cac:	ef 92       	push	r14
    1cae:	0e 94 ea 03 	call	0x7d4	; 0x7d4 <SendTrace>
    1cb2:	0f 90       	pop	r0
    1cb4:	0f 90       	pop	r0
    1cb6:	0f 90       	pop	r0
    1cb8:	f3 94       	inc	r15
    1cba:	e9 cf       	rjmp	.-46     	; 0x1c8e <FlushADXL345Fifo+0x30>
    1cbc:	81 e0       	ldi	r24, 0x01	; 1
    1cbe:	01 c0       	rjmp	.+2      	; 0x1cc2 <FlushADXL345Fifo+0x64>
    1cc0:	80 e0       	ldi	r24, 0x00	; 0
    1cc2:	27 96       	adiw	r28, 0x07	; 7
    1cc4:	0f b6       	in	r0, 0x3f	; 63
    1cc6:	f8 94       	cli
    1cc8:	de bf       	out	0x3e, r29	; 62
    1cca:	0f be       	out	0x3f, r0	; 63
    1ccc:	cd bf       	out	0x3d, r28	; 61
    1cce:	df 91       	pop	r29
    1cd0:	cf 91       	pop	r28
    1cd2:	1f 91       	pop	r17
    1cd4:	0f 91       	pop	r16
    1cd6:	ff 90       	pop	r15
    1cd8:	ef 90       	pop	r14
    1cda:	08 95       	ret

00001cdc <ReadADXL345AccAndTiltData>:
    1cdc:	2f 92       	push	r2
    1cde:	3f 92       	push	r3
    1ce0:	4f 92       	push	r4
    1ce2:	5f 92       	push	r5
    1ce4:	6f 92       	push	r6
    1ce6:	7f 92       	push	r7
    1ce8:	8f 92       	push	r8
    1cea:	9f 92       	push	r9
    1cec:	af 92       	push	r10
    1cee:	bf 92       	push	r11
    1cf0:	cf 92       	push	r12
    1cf2:	df 92       	push	r13
    1cf4:	ef 92       	push	r14
    1cf6:	ff 92       	push	r15
    1cf8:	0f 93       	push	r16
    1cfa:	1f 93       	push	r17
    1cfc:	cf 93       	push	r28
    1cfe:	df 93       	push	r29
    1d00:	cd b7       	in	r28, 0x3d	; 61
    1d02:	de b7       	in	r29, 0x3e	; 62
    1d04:	62 97       	sbiw	r28, 0x12	; 18
    1d06:	0f b6       	in	r0, 0x3f	; 63
    1d08:	f8 94       	cli
    1d0a:	de bf       	out	0x3e, r29	; 62
    1d0c:	0f be       	out	0x3f, r0	; 63
    1d0e:	cd bf       	out	0x3d, r28	; 61
    1d10:	08 2f       	mov	r16, r24
    1d12:	1b 01       	movw	r2, r22
    1d14:	80 91 fd 15 	lds	r24, 0x15FD
    1d18:	81 11       	cpse	r24, r1
    1d1a:	0d c0       	rjmp	.+26     	; 0x1d36 <ReadADXL345AccAndTiltData+0x5a>
    1d1c:	83 e0       	ldi	r24, 0x03	; 3
    1d1e:	9c e0       	ldi	r25, 0x0C	; 12
    1d20:	9f 93       	push	r25
    1d22:	8f 93       	push	r24
    1d24:	81 e0       	ldi	r24, 0x01	; 1
    1d26:	8f 93       	push	r24
    1d28:	0e 94 ea 03 	call	0x7d4	; 0x7d4 <SendTrace>
    1d2c:	0f 90       	pop	r0
    1d2e:	0f 90       	pop	r0
    1d30:	0f 90       	pop	r0
    1d32:	10 e0       	ldi	r17, 0x00	; 0
    1d34:	e5 c0       	rjmp	.+458    	; 0x1f00 <ReadADXL345AccAndTiltData+0x224>
    1d36:	26 e0       	ldi	r18, 0x06	; 6
    1d38:	30 e0       	ldi	r19, 0x00	; 0
    1d3a:	40 e0       	ldi	r20, 0x00	; 0
    1d3c:	50 e0       	ldi	r21, 0x00	; 0
    1d3e:	be 01       	movw	r22, r28
    1d40:	6f 5f       	subi	r22, 0xFF	; 255
    1d42:	7f 4f       	sbci	r23, 0xFF	; 255
    1d44:	82 e3       	ldi	r24, 0x32	; 50
    1d46:	ba de       	rcall	.-652    	; 0x1abc <ReadADXL345Register>
    1d48:	18 2f       	mov	r17, r24
    1d4a:	81 11       	cpse	r24, r1
    1d4c:	0c c0       	rjmp	.+24     	; 0x1d66 <ReadADXL345AccAndTiltData+0x8a>
    1d4e:	8a e0       	ldi	r24, 0x0A	; 10
    1d50:	9d e0       	ldi	r25, 0x0D	; 13
    1d52:	9f 93       	push	r25
    1d54:	8f 93       	push	r24
    1d56:	81 e0       	ldi	r24, 0x01	; 1
    1d58:	8f 93       	push	r24
    1d5a:	0e 94 ea 03 	call	0x7d4	; 0x7d4 <SendTrace>
    1d5e:	0f 90       	pop	r0
    1d60:	0f 90       	pop	r0
    1d62:	0f 90       	pop	r0
    1d64:	cd c0       	rjmp	.+410    	; 0x1f00 <ReadADXL345AccAndTiltData+0x224>
    1d66:	69 81       	ldd	r22, Y+1	; 0x01
    1d68:	7a 81       	ldd	r23, Y+2	; 0x02
    1d6a:	88 27       	eor	r24, r24
    1d6c:	77 fd       	sbrc	r23, 7
    1d6e:	80 95       	com	r24
    1d70:	98 2f       	mov	r25, r24
    1d72:	0e 94 4f 1a 	call	0x349e	; 0x349e <__floatsisf>
    1d76:	20 e0       	ldi	r18, 0x00	; 0
    1d78:	30 e0       	ldi	r19, 0x00	; 0
    1d7a:	40 e8       	ldi	r20, 0x80	; 128
    1d7c:	5b e3       	ldi	r21, 0x3B	; 59
    1d7e:	0e 94 68 1b 	call	0x36d0	; 0x36d0 <__mulsf3>
    1d82:	4b 01       	movw	r8, r22
    1d84:	5c 01       	movw	r10, r24
    1d86:	f1 01       	movw	r30, r2
    1d88:	60 83       	st	Z, r22
    1d8a:	71 83       	std	Z+1, r23	; 0x01
    1d8c:	82 83       	std	Z+2, r24	; 0x02
    1d8e:	93 83       	std	Z+3, r25	; 0x03
    1d90:	6b 81       	ldd	r22, Y+3	; 0x03
    1d92:	7c 81       	ldd	r23, Y+4	; 0x04
    1d94:	88 27       	eor	r24, r24
    1d96:	77 fd       	sbrc	r23, 7
    1d98:	80 95       	com	r24
    1d9a:	98 2f       	mov	r25, r24
    1d9c:	0e 94 4f 1a 	call	0x349e	; 0x349e <__floatsisf>
    1da0:	20 e0       	ldi	r18, 0x00	; 0
    1da2:	30 e0       	ldi	r19, 0x00	; 0
    1da4:	40 e8       	ldi	r20, 0x80	; 128
    1da6:	5b e3       	ldi	r21, 0x3B	; 59
    1da8:	0e 94 68 1b 	call	0x36d0	; 0x36d0 <__mulsf3>
    1dac:	6b 01       	movw	r12, r22
    1dae:	7c 01       	movw	r14, r24
    1db0:	f1 01       	movw	r30, r2
    1db2:	64 83       	std	Z+4, r22	; 0x04
    1db4:	75 83       	std	Z+5, r23	; 0x05
    1db6:	86 83       	std	Z+6, r24	; 0x06
    1db8:	97 83       	std	Z+7, r25	; 0x07
    1dba:	6d 81       	ldd	r22, Y+5	; 0x05
    1dbc:	7e 81       	ldd	r23, Y+6	; 0x06
    1dbe:	88 27       	eor	r24, r24
    1dc0:	77 fd       	sbrc	r23, 7
    1dc2:	80 95       	com	r24
    1dc4:	98 2f       	mov	r25, r24
    1dc6:	0e 94 4f 1a 	call	0x349e	; 0x349e <__floatsisf>
    1dca:	20 e0       	ldi	r18, 0x00	; 0
    1dcc:	30 e0       	ldi	r19, 0x00	; 0
    1dce:	40 e8       	ldi	r20, 0x80	; 128
    1dd0:	5b e3       	ldi	r21, 0x3B	; 59
    1dd2:	0e 94 68 1b 	call	0x36d0	; 0x36d0 <__mulsf3>
    1dd6:	2b 01       	movw	r4, r22
    1dd8:	3c 01       	movw	r6, r24
    1dda:	f1 01       	movw	r30, r2
    1ddc:	60 87       	std	Z+8, r22	; 0x08
    1dde:	71 87       	std	Z+9, r23	; 0x09
    1de0:	82 87       	std	Z+10, r24	; 0x0a
    1de2:	93 87       	std	Z+11, r25	; 0x0b
    1de4:	a5 01       	movw	r20, r10
    1de6:	94 01       	movw	r18, r8
    1de8:	c5 01       	movw	r24, r10
    1dea:	b4 01       	movw	r22, r8
    1dec:	0e 94 68 1b 	call	0x36d0	; 0x36d0 <__mulsf3>
    1df0:	6f 83       	std	Y+7, r22	; 0x07
    1df2:	78 87       	std	Y+8, r23	; 0x08
    1df4:	89 87       	std	Y+9, r24	; 0x09
    1df6:	9a 87       	std	Y+10, r25	; 0x0a
    1df8:	a7 01       	movw	r20, r14
    1dfa:	96 01       	movw	r18, r12
    1dfc:	c7 01       	movw	r24, r14
    1dfe:	b6 01       	movw	r22, r12
    1e00:	0e 94 68 1b 	call	0x36d0	; 0x36d0 <__mulsf3>
    1e04:	6b 87       	std	Y+11, r22	; 0x0b
    1e06:	7c 87       	std	Y+12, r23	; 0x0c
    1e08:	8d 87       	std	Y+13, r24	; 0x0d
    1e0a:	9e 87       	std	Y+14, r25	; 0x0e
    1e0c:	a3 01       	movw	r20, r6
    1e0e:	92 01       	movw	r18, r4
    1e10:	c3 01       	movw	r24, r6
    1e12:	b2 01       	movw	r22, r4
    1e14:	0e 94 68 1b 	call	0x36d0	; 0x36d0 <__mulsf3>
    1e18:	6f 87       	std	Y+15, r22	; 0x0f
    1e1a:	78 8b       	std	Y+16, r23	; 0x10
    1e1c:	89 8b       	std	Y+17, r24	; 0x11
    1e1e:	9a 8b       	std	Y+18, r25	; 0x12
    1e20:	9b 01       	movw	r18, r22
    1e22:	ac 01       	movw	r20, r24
    1e24:	6b 85       	ldd	r22, Y+11	; 0x0b
    1e26:	7c 85       	ldd	r23, Y+12	; 0x0c
    1e28:	8d 85       	ldd	r24, Y+13	; 0x0d
    1e2a:	9e 85       	ldd	r25, Y+14	; 0x0e
    1e2c:	0e 94 e7 18 	call	0x31ce	; 0x31ce <__addsf3>
    1e30:	0e 94 d5 1b 	call	0x37aa	; 0x37aa <sqrt>
    1e34:	9b 01       	movw	r18, r22
    1e36:	ac 01       	movw	r20, r24
    1e38:	c5 01       	movw	r24, r10
    1e3a:	b4 01       	movw	r22, r8
    1e3c:	0e 94 5a 19 	call	0x32b4	; 0x32b4 <atan2>
    1e40:	4b 01       	movw	r8, r22
    1e42:	5c 01       	movw	r10, r24
    1e44:	f1 01       	movw	r30, r2
    1e46:	64 87       	std	Z+12, r22	; 0x0c
    1e48:	75 87       	std	Z+13, r23	; 0x0d
    1e4a:	86 87       	std	Z+14, r24	; 0x0e
    1e4c:	97 87       	std	Z+15, r25	; 0x0f
    1e4e:	2f 85       	ldd	r18, Y+15	; 0x0f
    1e50:	38 89       	ldd	r19, Y+16	; 0x10
    1e52:	49 89       	ldd	r20, Y+17	; 0x11
    1e54:	5a 89       	ldd	r21, Y+18	; 0x12
    1e56:	6f 81       	ldd	r22, Y+7	; 0x07
    1e58:	78 85       	ldd	r23, Y+8	; 0x08
    1e5a:	89 85       	ldd	r24, Y+9	; 0x09
    1e5c:	9a 85       	ldd	r25, Y+10	; 0x0a
    1e5e:	0e 94 e7 18 	call	0x31ce	; 0x31ce <__addsf3>
    1e62:	0e 94 d5 1b 	call	0x37aa	; 0x37aa <sqrt>
    1e66:	9b 01       	movw	r18, r22
    1e68:	ac 01       	movw	r20, r24
    1e6a:	c7 01       	movw	r24, r14
    1e6c:	b6 01       	movw	r22, r12
    1e6e:	0e 94 5a 19 	call	0x32b4	; 0x32b4 <atan2>
    1e72:	6b 01       	movw	r12, r22
    1e74:	7c 01       	movw	r14, r24
    1e76:	f1 01       	movw	r30, r2
    1e78:	60 8b       	std	Z+16, r22	; 0x10
    1e7a:	71 8b       	std	Z+17, r23	; 0x11
    1e7c:	82 8b       	std	Z+18, r24	; 0x12
    1e7e:	93 8b       	std	Z+19, r25	; 0x13
    1e80:	2b 85       	ldd	r18, Y+11	; 0x0b
    1e82:	3c 85       	ldd	r19, Y+12	; 0x0c
    1e84:	4d 85       	ldd	r20, Y+13	; 0x0d
    1e86:	5e 85       	ldd	r21, Y+14	; 0x0e
    1e88:	6f 81       	ldd	r22, Y+7	; 0x07
    1e8a:	78 85       	ldd	r23, Y+8	; 0x08
    1e8c:	89 85       	ldd	r24, Y+9	; 0x09
    1e8e:	9a 85       	ldd	r25, Y+10	; 0x0a
    1e90:	0e 94 e7 18 	call	0x31ce	; 0x31ce <__addsf3>
    1e94:	0e 94 d5 1b 	call	0x37aa	; 0x37aa <sqrt>
    1e98:	a3 01       	movw	r20, r6
    1e9a:	92 01       	movw	r18, r4
    1e9c:	0e 94 5a 19 	call	0x32b4	; 0x32b4 <atan2>
    1ea0:	2b 01       	movw	r4, r22
    1ea2:	3c 01       	movw	r6, r24
    1ea4:	f1 01       	movw	r30, r2
    1ea6:	64 8b       	std	Z+20, r22	; 0x14
    1ea8:	75 8b       	std	Z+21, r23	; 0x15
    1eaa:	86 8b       	std	Z+22, r24	; 0x16
    1eac:	97 8b       	std	Z+23, r25	; 0x17
    1eae:	01 30       	cpi	r16, 0x01	; 1
    1eb0:	39 f5       	brne	.+78     	; 0x1f00 <ReadADXL345AccAndTiltData+0x224>
    1eb2:	20 ee       	ldi	r18, 0xE0	; 224
    1eb4:	3e e2       	ldi	r19, 0x2E	; 46
    1eb6:	45 e6       	ldi	r20, 0x65	; 101
    1eb8:	52 e4       	ldi	r21, 0x42	; 66
    1eba:	c5 01       	movw	r24, r10
    1ebc:	b4 01       	movw	r22, r8
    1ebe:	0e 94 68 1b 	call	0x36d0	; 0x36d0 <__mulsf3>
    1ec2:	f1 01       	movw	r30, r2
    1ec4:	64 87       	std	Z+12, r22	; 0x0c
    1ec6:	75 87       	std	Z+13, r23	; 0x0d
    1ec8:	86 87       	std	Z+14, r24	; 0x0e
    1eca:	97 87       	std	Z+15, r25	; 0x0f
    1ecc:	20 ee       	ldi	r18, 0xE0	; 224
    1ece:	3e e2       	ldi	r19, 0x2E	; 46
    1ed0:	45 e6       	ldi	r20, 0x65	; 101
    1ed2:	52 e4       	ldi	r21, 0x42	; 66
    1ed4:	c7 01       	movw	r24, r14
    1ed6:	b6 01       	movw	r22, r12
    1ed8:	0e 94 68 1b 	call	0x36d0	; 0x36d0 <__mulsf3>
    1edc:	f1 01       	movw	r30, r2
    1ede:	60 8b       	std	Z+16, r22	; 0x10
    1ee0:	71 8b       	std	Z+17, r23	; 0x11
    1ee2:	82 8b       	std	Z+18, r24	; 0x12
    1ee4:	93 8b       	std	Z+19, r25	; 0x13
    1ee6:	20 ee       	ldi	r18, 0xE0	; 224
    1ee8:	3e e2       	ldi	r19, 0x2E	; 46
    1eea:	45 e6       	ldi	r20, 0x65	; 101
    1eec:	52 e4       	ldi	r21, 0x42	; 66
    1eee:	c3 01       	movw	r24, r6
    1ef0:	b2 01       	movw	r22, r4
    1ef2:	0e 94 68 1b 	call	0x36d0	; 0x36d0 <__mulsf3>
    1ef6:	f1 01       	movw	r30, r2
    1ef8:	64 8b       	std	Z+20, r22	; 0x14
    1efa:	75 8b       	std	Z+21, r23	; 0x15
    1efc:	86 8b       	std	Z+22, r24	; 0x16
    1efe:	97 8b       	std	Z+23, r25	; 0x17
    1f00:	81 2f       	mov	r24, r17
    1f02:	62 96       	adiw	r28, 0x12	; 18
    1f04:	0f b6       	in	r0, 0x3f	; 63
    1f06:	f8 94       	cli
    1f08:	de bf       	out	0x3e, r29	; 62
    1f0a:	0f be       	out	0x3f, r0	; 63
    1f0c:	cd bf       	out	0x3d, r28	; 61
    1f0e:	df 91       	pop	r29
    1f10:	cf 91       	pop	r28
    1f12:	1f 91       	pop	r17
    1f14:	0f 91       	pop	r16
    1f16:	ff 90       	pop	r15
    1f18:	ef 90       	pop	r14
    1f1a:	df 90       	pop	r13
    1f1c:	cf 90       	pop	r12
    1f1e:	bf 90       	pop	r11
    1f20:	af 90       	pop	r10
    1f22:	9f 90       	pop	r9
    1f24:	8f 90       	pop	r8
    1f26:	7f 90       	pop	r7
    1f28:	6f 90       	pop	r6
    1f2a:	5f 90       	pop	r5
    1f2c:	4f 90       	pop	r4
    1f2e:	3f 90       	pop	r3
    1f30:	2f 90       	pop	r2
    1f32:	08 95       	ret

00001f34 <CheckADXL345DeviceId>:
    1f34:	cf 93       	push	r28
    1f36:	df 93       	push	r29
    1f38:	00 d0       	rcall	.+0      	; 0x1f3a <CheckADXL345DeviceId+0x6>
    1f3a:	cd b7       	in	r28, 0x3d	; 61
    1f3c:	de b7       	in	r29, 0x3e	; 62
    1f3e:	21 e0       	ldi	r18, 0x01	; 1
    1f40:	30 e0       	ldi	r19, 0x00	; 0
    1f42:	40 e0       	ldi	r20, 0x00	; 0
    1f44:	50 e0       	ldi	r21, 0x00	; 0
    1f46:	be 01       	movw	r22, r28
    1f48:	6f 5f       	subi	r22, 0xFF	; 255
    1f4a:	7f 4f       	sbci	r23, 0xFF	; 255
    1f4c:	80 e0       	ldi	r24, 0x00	; 0
    1f4e:	b6 dd       	rcall	.-1172   	; 0x1abc <ReadADXL345Register>
    1f50:	81 11       	cpse	r24, r1
    1f52:	0e c0       	rjmp	.+28     	; 0x1f70 <CheckADXL345DeviceId+0x3c>
    1f54:	22 e6       	ldi	r18, 0x62	; 98
    1f56:	3d e0       	ldi	r19, 0x0D	; 13
    1f58:	3f 93       	push	r19
    1f5a:	2f 93       	push	r18
    1f5c:	91 e0       	ldi	r25, 0x01	; 1
    1f5e:	9f 93       	push	r25
    1f60:	8a 83       	std	Y+2, r24	; 0x02
    1f62:	0e 94 ea 03 	call	0x7d4	; 0x7d4 <SendTrace>
    1f66:	0f 90       	pop	r0
    1f68:	0f 90       	pop	r0
    1f6a:	0f 90       	pop	r0
    1f6c:	8a 81       	ldd	r24, Y+2	; 0x02
    1f6e:	13 c0       	rjmp	.+38     	; 0x1f96 <CheckADXL345DeviceId+0x62>
    1f70:	99 81       	ldd	r25, Y+1	; 0x01
    1f72:	95 3e       	cpi	r25, 0xE5	; 229
    1f74:	81 f0       	breq	.+32     	; 0x1f96 <CheckADXL345DeviceId+0x62>
    1f76:	1f 92       	push	r1
    1f78:	9f 93       	push	r25
    1f7a:	8d e8       	ldi	r24, 0x8D	; 141
    1f7c:	9d e0       	ldi	r25, 0x0D	; 13
    1f7e:	9f 93       	push	r25
    1f80:	8f 93       	push	r24
    1f82:	81 e0       	ldi	r24, 0x01	; 1
    1f84:	8f 93       	push	r24
    1f86:	0e 94 ea 03 	call	0x7d4	; 0x7d4 <SendTrace>
    1f8a:	0f 90       	pop	r0
    1f8c:	0f 90       	pop	r0
    1f8e:	0f 90       	pop	r0
    1f90:	0f 90       	pop	r0
    1f92:	0f 90       	pop	r0
    1f94:	80 e0       	ldi	r24, 0x00	; 0
    1f96:	0f 90       	pop	r0
    1f98:	0f 90       	pop	r0
    1f9a:	df 91       	pop	r29
    1f9c:	cf 91       	pop	r28
    1f9e:	08 95       	ret

00001fa0 <InitADXL345DevAddress>:
    1fa0:	88 23       	and	r24, r24
    1fa2:	11 f0       	breq	.+4      	; 0x1fa8 <InitADXL345DevAddress+0x8>
    1fa4:	93 e5       	ldi	r25, 0x53	; 83
    1fa6:	01 c0       	rjmp	.+2      	; 0x1faa <InitADXL345DevAddress+0xa>
    1fa8:	9d e1       	ldi	r25, 0x1D	; 29
    1faa:	29 2f       	mov	r18, r25
    1fac:	22 0f       	add	r18, r18
    1fae:	80 91 4a 16 	lds	r24, 0x164A
    1fb2:	81 70       	andi	r24, 0x01	; 1
    1fb4:	82 2b       	or	r24, r18
    1fb6:	80 93 4a 16 	sts	0x164A, r24
    1fba:	1f 92       	push	r1
    1fbc:	9f 93       	push	r25
    1fbe:	8d eb       	ldi	r24, 0xBD	; 189
    1fc0:	9d e0       	ldi	r25, 0x0D	; 13
    1fc2:	9f 93       	push	r25
    1fc4:	8f 93       	push	r24
    1fc6:	84 e0       	ldi	r24, 0x04	; 4
    1fc8:	8f 93       	push	r24
    1fca:	0e 94 ea 03 	call	0x7d4	; 0x7d4 <SendTrace>
    1fce:	b2 df       	rcall	.-156    	; 0x1f34 <CheckADXL345DeviceId>
    1fd0:	0f 90       	pop	r0
    1fd2:	0f 90       	pop	r0
    1fd4:	0f 90       	pop	r0
    1fd6:	0f 90       	pop	r0
    1fd8:	0f 90       	pop	r0
    1fda:	88 23       	and	r24, r24
    1fdc:	19 f0       	breq	.+6      	; 0x1fe4 <InitADXL345DevAddress+0x44>
    1fde:	91 e0       	ldi	r25, 0x01	; 1
    1fe0:	90 93 fd 15 	sts	0x15FD, r25
    1fe4:	08 95       	ret

00001fe6 <SetADXL345Register>:
    1fe6:	af 92       	push	r10
    1fe8:	bf 92       	push	r11
    1fea:	cf 92       	push	r12
    1fec:	df 92       	push	r13
    1fee:	ef 92       	push	r14
    1ff0:	ff 92       	push	r15
    1ff2:	0f 93       	push	r16
    1ff4:	1f 93       	push	r17
    1ff6:	cf 93       	push	r28
    1ff8:	df 93       	push	r29
    1ffa:	18 2f       	mov	r17, r24
    1ffc:	eb 01       	movw	r28, r22
    1ffe:	69 01       	movw	r12, r18
    2000:	7a 01       	movw	r14, r20
    2002:	c9 01       	movw	r24, r18
    2004:	01 96       	adiw	r24, 0x01	; 1
    2006:	0e 94 3c 1c 	call	0x3878	; 0x3878 <malloc>
    200a:	5c 01       	movw	r10, r24
    200c:	00 97       	sbiw	r24, 0x00	; 0
    200e:	09 f4       	brne	.+2      	; 0x2012 <SetADXL345Register+0x2c>
    2010:	47 c0       	rjmp	.+142    	; 0x20a0 <SetADXL345Register+0xba>
    2012:	fc 01       	movw	r30, r24
    2014:	11 93       	st	Z+, r17
    2016:	a6 01       	movw	r20, r12
    2018:	be 01       	movw	r22, r28
    201a:	cf 01       	movw	r24, r30
    201c:	0e 94 63 1d 	call	0x3ac6	; 0x3ac6 <memcpy>
    2020:	01 e0       	ldi	r16, 0x01	; 1
    2022:	2a e4       	ldi	r18, 0x4A	; 74
    2024:	36 e1       	ldi	r19, 0x16	; 22
    2026:	b7 01       	movw	r22, r14
    2028:	a6 01       	movw	r20, r12
    202a:	4f 5f       	subi	r20, 0xFF	; 255
    202c:	5f 4f       	sbci	r21, 0xFF	; 255
    202e:	6f 4f       	sbci	r22, 0xFF	; 255
    2030:	7f 4f       	sbci	r23, 0xFF	; 255
    2032:	c5 01       	movw	r24, r10
    2034:	d6 db       	rcall	.-2132   	; 0x17e2 <TwiTransmit>
    2036:	08 2f       	mov	r16, r24
    2038:	81 11       	cpse	r24, r1
    203a:	0b c0       	rjmp	.+22     	; 0x2052 <SetADXL345Register+0x6c>
    203c:	25 ed       	ldi	r18, 0xD5	; 213
    203e:	3d e0       	ldi	r19, 0x0D	; 13
    2040:	3f 93       	push	r19
    2042:	2f 93       	push	r18
    2044:	81 e0       	ldi	r24, 0x01	; 1
    2046:	8f 93       	push	r24
    2048:	0e 94 ea 03 	call	0x7d4	; 0x7d4 <SendTrace>
    204c:	0f 90       	pop	r0
    204e:	0f 90       	pop	r0
    2050:	0f 90       	pop	r0
    2052:	c5 01       	movw	r24, r10
    2054:	0e 94 d4 1c 	call	0x39a8	; 0x39a8 <free>
    2058:	88 81       	ld	r24, Y
    205a:	1f 92       	push	r1
    205c:	8f 93       	push	r24
    205e:	2b ef       	ldi	r18, 0xFB	; 251
    2060:	3d e0       	ldi	r19, 0x0D	; 13
    2062:	3f 93       	push	r19
    2064:	2f 93       	push	r18
    2066:	84 e0       	ldi	r24, 0x04	; 4
    2068:	b8 2e       	mov	r11, r24
    206a:	bf 92       	push	r11
    206c:	0e 94 ea 03 	call	0x7d4	; 0x7d4 <SendTrace>
    2070:	a7 01       	movw	r20, r14
    2072:	96 01       	movw	r18, r12
    2074:	be 01       	movw	r22, r28
    2076:	81 2f       	mov	r24, r17
    2078:	21 dd       	rcall	.-1470   	; 0x1abc <ReadADXL345Register>
    207a:	88 81       	ld	r24, Y
    207c:	1f 92       	push	r1
    207e:	8f 93       	push	r24
    2080:	2f e0       	ldi	r18, 0x0F	; 15
    2082:	3e e0       	ldi	r19, 0x0E	; 14
    2084:	3f 93       	push	r19
    2086:	2f 93       	push	r18
    2088:	bf 92       	push	r11
    208a:	0e 94 ea 03 	call	0x7d4	; 0x7d4 <SendTrace>
    208e:	8d b7       	in	r24, 0x3d	; 61
    2090:	9e b7       	in	r25, 0x3e	; 62
    2092:	0a 96       	adiw	r24, 0x0a	; 10
    2094:	0f b6       	in	r0, 0x3f	; 63
    2096:	f8 94       	cli
    2098:	9e bf       	out	0x3e, r25	; 62
    209a:	0f be       	out	0x3f, r0	; 63
    209c:	8d bf       	out	0x3d, r24	; 61
    209e:	01 c0       	rjmp	.+2      	; 0x20a2 <SetADXL345Register+0xbc>
    20a0:	00 e0       	ldi	r16, 0x00	; 0
    20a2:	80 2f       	mov	r24, r16
    20a4:	df 91       	pop	r29
    20a6:	cf 91       	pop	r28
    20a8:	1f 91       	pop	r17
    20aa:	0f 91       	pop	r16
    20ac:	ff 90       	pop	r15
    20ae:	ef 90       	pop	r14
    20b0:	df 90       	pop	r13
    20b2:	cf 90       	pop	r12
    20b4:	bf 90       	pop	r11
    20b6:	af 90       	pop	r10
    20b8:	08 95       	ret

000020ba <EnableDisableADXL345StandbyMode>:
    20ba:	1f 93       	push	r17
    20bc:	cf 93       	push	r28
    20be:	df 93       	push	r29
    20c0:	00 d0       	rcall	.+0      	; 0x20c2 <EnableDisableADXL345StandbyMode+0x8>
    20c2:	cd b7       	in	r28, 0x3d	; 61
    20c4:	de b7       	in	r29, 0x3e	; 62
    20c6:	18 2f       	mov	r17, r24
    20c8:	80 91 fd 15 	lds	r24, 0x15FD
    20cc:	81 11       	cpse	r24, r1
    20ce:	0d c0       	rjmp	.+26     	; 0x20ea <EnableDisableADXL345StandbyMode+0x30>
    20d0:	83 e0       	ldi	r24, 0x03	; 3
    20d2:	9c e0       	ldi	r25, 0x0C	; 12
    20d4:	9f 93       	push	r25
    20d6:	8f 93       	push	r24
    20d8:	81 e0       	ldi	r24, 0x01	; 1
    20da:	8f 93       	push	r24
    20dc:	0e 94 ea 03 	call	0x7d4	; 0x7d4 <SendTrace>
    20e0:	0f 90       	pop	r0
    20e2:	0f 90       	pop	r0
    20e4:	0f 90       	pop	r0
    20e6:	80 e0       	ldi	r24, 0x00	; 0
    20e8:	30 c0       	rjmp	.+96     	; 0x214a <EnableDisableADXL345StandbyMode+0x90>
    20ea:	21 e0       	ldi	r18, 0x01	; 1
    20ec:	30 e0       	ldi	r19, 0x00	; 0
    20ee:	40 e0       	ldi	r20, 0x00	; 0
    20f0:	50 e0       	ldi	r21, 0x00	; 0
    20f2:	be 01       	movw	r22, r28
    20f4:	6f 5f       	subi	r22, 0xFF	; 255
    20f6:	7f 4f       	sbci	r23, 0xFF	; 255
    20f8:	8d e2       	ldi	r24, 0x2D	; 45
    20fa:	e0 dc       	rcall	.-1600   	; 0x1abc <ReadADXL345Register>
    20fc:	81 11       	cpse	r24, r1
    20fe:	03 c0       	rjmp	.+6      	; 0x2106 <EnableDisableADXL345StandbyMode+0x4c>
    2100:	21 e2       	ldi	r18, 0x21	; 33
    2102:	3e e0       	ldi	r19, 0x0E	; 14
    2104:	14 c0       	rjmp	.+40     	; 0x212e <EnableDisableADXL345StandbyMode+0x74>
    2106:	91 e0       	ldi	r25, 0x01	; 1
    2108:	11 11       	cpse	r17, r1
    210a:	90 e0       	ldi	r25, 0x00	; 0
    210c:	89 81       	ldd	r24, Y+1	; 0x01
    210e:	90 fb       	bst	r25, 0
    2110:	83 f9       	bld	r24, 3
    2112:	89 83       	std	Y+1, r24	; 0x01
    2114:	21 e0       	ldi	r18, 0x01	; 1
    2116:	30 e0       	ldi	r19, 0x00	; 0
    2118:	40 e0       	ldi	r20, 0x00	; 0
    211a:	50 e0       	ldi	r21, 0x00	; 0
    211c:	be 01       	movw	r22, r28
    211e:	6f 5f       	subi	r22, 0xFF	; 255
    2120:	7f 4f       	sbci	r23, 0xFF	; 255
    2122:	8d e2       	ldi	r24, 0x2D	; 45
    2124:	60 df       	rcall	.-320    	; 0x1fe6 <SetADXL345Register>
    2126:	81 11       	cpse	r24, r1
    2128:	0e c0       	rjmp	.+28     	; 0x2146 <EnableDisableADXL345StandbyMode+0x8c>
    212a:	27 e4       	ldi	r18, 0x47	; 71
    212c:	3e e0       	ldi	r19, 0x0E	; 14
    212e:	3f 93       	push	r19
    2130:	2f 93       	push	r18
    2132:	91 e0       	ldi	r25, 0x01	; 1
    2134:	9f 93       	push	r25
    2136:	8a 83       	std	Y+2, r24	; 0x02
    2138:	0e 94 ea 03 	call	0x7d4	; 0x7d4 <SendTrace>
    213c:	0f 90       	pop	r0
    213e:	0f 90       	pop	r0
    2140:	0f 90       	pop	r0
    2142:	8a 81       	ldd	r24, Y+2	; 0x02
    2144:	02 c0       	rjmp	.+4      	; 0x214a <EnableDisableADXL345StandbyMode+0x90>
    2146:	10 93 06 01 	sts	0x0106, r17
    214a:	0f 90       	pop	r0
    214c:	0f 90       	pop	r0
    214e:	df 91       	pop	r29
    2150:	cf 91       	pop	r28
    2152:	1f 91       	pop	r17
    2154:	08 95       	ret

00002156 <ProgramADXL345PowerCtl>:
    2156:	0f 93       	push	r16
    2158:	1f 93       	push	r17
    215a:	cf 93       	push	r28
    215c:	df 93       	push	r29
    215e:	00 d0       	rcall	.+0      	; 0x2160 <ProgramADXL345PowerCtl+0xa>
    2160:	1f 92       	push	r1
    2162:	cd b7       	in	r28, 0x3d	; 61
    2164:	de b7       	in	r29, 0x3e	; 62
    2166:	18 2f       	mov	r17, r24
    2168:	06 2f       	mov	r16, r22
    216a:	80 91 fd 15 	lds	r24, 0x15FD
    216e:	88 23       	and	r24, r24
    2170:	21 f0       	breq	.+8      	; 0x217a <ProgramADXL345PowerCtl+0x24>
    2172:	80 91 06 01 	lds	r24, 0x0106
    2176:	81 11       	cpse	r24, r1
    2178:	03 c0       	rjmp	.+6      	; 0x2180 <ProgramADXL345PowerCtl+0x2a>
    217a:	89 e7       	ldi	r24, 0x79	; 121
    217c:	9e e0       	ldi	r25, 0x0E	; 14
    217e:	06 c0       	rjmp	.+12     	; 0x218c <ProgramADXL345PowerCtl+0x36>
    2180:	12 30       	cpi	r17, 0x02	; 2
    2182:	79 f4       	brne	.+30     	; 0x21a2 <ProgramADXL345PowerCtl+0x4c>
    2184:	64 30       	cpi	r22, 0x04	; 4
    2186:	69 f0       	breq	.+26     	; 0x21a2 <ProgramADXL345PowerCtl+0x4c>
    2188:	88 eb       	ldi	r24, 0xB8	; 184
    218a:	9e e0       	ldi	r25, 0x0E	; 14
    218c:	9f 93       	push	r25
    218e:	8f 93       	push	r24
    2190:	81 e0       	ldi	r24, 0x01	; 1
    2192:	8f 93       	push	r24
    2194:	0e 94 ea 03 	call	0x7d4	; 0x7d4 <SendTrace>
    2198:	0f 90       	pop	r0
    219a:	0f 90       	pop	r0
    219c:	0f 90       	pop	r0
    219e:	80 e0       	ldi	r24, 0x00	; 0
    21a0:	52 c0       	rjmp	.+164    	; 0x2246 <ProgramADXL345PowerCtl+0xf0>
    21a2:	21 e0       	ldi	r18, 0x01	; 1
    21a4:	30 e0       	ldi	r19, 0x00	; 0
    21a6:	40 e0       	ldi	r20, 0x00	; 0
    21a8:	50 e0       	ldi	r21, 0x00	; 0
    21aa:	be 01       	movw	r22, r28
    21ac:	6e 5f       	subi	r22, 0xFE	; 254
    21ae:	7f 4f       	sbci	r23, 0xFF	; 255
    21b0:	8c e2       	ldi	r24, 0x2C	; 44
    21b2:	84 dc       	rcall	.-1784   	; 0x1abc <ReadADXL345Register>
    21b4:	81 11       	cpse	r24, r1
    21b6:	03 c0       	rjmp	.+6      	; 0x21be <ProgramADXL345PowerCtl+0x68>
    21b8:	2d ed       	ldi	r18, 0xDD	; 221
    21ba:	3e e0       	ldi	r19, 0x0E	; 14
    21bc:	39 c0       	rjmp	.+114    	; 0x2230 <ProgramADXL345PowerCtl+0xda>
    21be:	19 82       	std	Y+1, r1	; 0x01
    21c0:	11 30       	cpi	r17, 0x01	; 1
    21c2:	a9 f0       	breq	.+42     	; 0x21ee <ProgramADXL345PowerCtl+0x98>
    21c4:	40 f0       	brcs	.+16     	; 0x21d6 <ProgramADXL345PowerCtl+0x80>
    21c6:	12 30       	cpi	r17, 0x02	; 2
    21c8:	c1 f4       	brne	.+48     	; 0x21fa <ProgramADXL345PowerCtl+0xa4>
    21ca:	8a 81       	ldd	r24, Y+2	; 0x02
    21cc:	8f 7e       	andi	r24, 0xEF	; 239
    21ce:	8a 83       	std	Y+2, r24	; 0x02
    21d0:	88 e0       	ldi	r24, 0x08	; 8
    21d2:	89 83       	std	Y+1, r24	; 0x01
    21d4:	12 c0       	rjmp	.+36     	; 0x21fa <ProgramADXL345PowerCtl+0xa4>
    21d6:	9a 81       	ldd	r25, Y+2	; 0x02
    21d8:	89 e0       	ldi	r24, 0x09	; 9
    21da:	89 0f       	add	r24, r25
    21dc:	8f 70       	andi	r24, 0x0F	; 15
    21de:	86 30       	cpi	r24, 0x06	; 6
    21e0:	18 f0       	brcs	.+6      	; 0x21e8 <ProgramADXL345PowerCtl+0x92>
    21e2:	81 e0       	ldi	r24, 0x01	; 1
    21e4:	9f e0       	ldi	r25, 0x0F	; 15
    21e6:	d2 cf       	rjmp	.-92     	; 0x218c <ProgramADXL345PowerCtl+0x36>
    21e8:	89 2f       	mov	r24, r25
    21ea:	80 61       	ori	r24, 0x10	; 16
    21ec:	02 c0       	rjmp	.+4      	; 0x21f2 <ProgramADXL345PowerCtl+0x9c>
    21ee:	8a 81       	ldd	r24, Y+2	; 0x02
    21f0:	8f 7e       	andi	r24, 0xEF	; 239
    21f2:	8a 83       	std	Y+2, r24	; 0x02
    21f4:	03 70       	andi	r16, 0x03	; 3
    21f6:	08 63       	ori	r16, 0x38	; 56
    21f8:	09 83       	std	Y+1, r16	; 0x01
    21fa:	21 e0       	ldi	r18, 0x01	; 1
    21fc:	30 e0       	ldi	r19, 0x00	; 0
    21fe:	40 e0       	ldi	r20, 0x00	; 0
    2200:	50 e0       	ldi	r21, 0x00	; 0
    2202:	be 01       	movw	r22, r28
    2204:	6e 5f       	subi	r22, 0xFE	; 254
    2206:	7f 4f       	sbci	r23, 0xFF	; 255
    2208:	8c e2       	ldi	r24, 0x2C	; 44
    220a:	ed de       	rcall	.-550    	; 0x1fe6 <SetADXL345Register>
    220c:	81 11       	cpse	r24, r1
    220e:	03 c0       	rjmp	.+6      	; 0x2216 <ProgramADXL345PowerCtl+0xc0>
    2210:	2a e2       	ldi	r18, 0x2A	; 42
    2212:	3f e0       	ldi	r19, 0x0F	; 15
    2214:	0d c0       	rjmp	.+26     	; 0x2230 <ProgramADXL345PowerCtl+0xda>
    2216:	21 e0       	ldi	r18, 0x01	; 1
    2218:	30 e0       	ldi	r19, 0x00	; 0
    221a:	40 e0       	ldi	r20, 0x00	; 0
    221c:	50 e0       	ldi	r21, 0x00	; 0
    221e:	be 01       	movw	r22, r28
    2220:	6f 5f       	subi	r22, 0xFF	; 255
    2222:	7f 4f       	sbci	r23, 0xFF	; 255
    2224:	8d e2       	ldi	r24, 0x2D	; 45
    2226:	df de       	rcall	.-578    	; 0x1fe6 <SetADXL345Register>
    2228:	81 11       	cpse	r24, r1
    222a:	0d c0       	rjmp	.+26     	; 0x2246 <ProgramADXL345PowerCtl+0xf0>
    222c:	21 e5       	ldi	r18, 0x51	; 81
    222e:	3f e0       	ldi	r19, 0x0F	; 15
    2230:	3f 93       	push	r19
    2232:	2f 93       	push	r18
    2234:	91 e0       	ldi	r25, 0x01	; 1
    2236:	9f 93       	push	r25
    2238:	8b 83       	std	Y+3, r24	; 0x03
    223a:	0e 94 ea 03 	call	0x7d4	; 0x7d4 <SendTrace>
    223e:	0f 90       	pop	r0
    2240:	0f 90       	pop	r0
    2242:	0f 90       	pop	r0
    2244:	8b 81       	ldd	r24, Y+3	; 0x03
    2246:	0f 90       	pop	r0
    2248:	0f 90       	pop	r0
    224a:	0f 90       	pop	r0
    224c:	df 91       	pop	r29
    224e:	cf 91       	pop	r28
    2250:	1f 91       	pop	r17
    2252:	0f 91       	pop	r16
    2254:	08 95       	ret

00002256 <ProgramADXL345Interrupts>:
    2256:	0f 93       	push	r16
    2258:	1f 93       	push	r17
    225a:	cf 93       	push	r28
    225c:	df 93       	push	r29
    225e:	1f 92       	push	r1
    2260:	cd b7       	in	r28, 0x3d	; 61
    2262:	de b7       	in	r29, 0x3e	; 62
    2264:	8b 01       	movw	r16, r22
    2266:	20 91 fd 15 	lds	r18, 0x15FD
    226a:	21 11       	cpse	r18, r1
    226c:	0d c0       	rjmp	.+26     	; 0x2288 <ProgramADXL345Interrupts+0x32>
    226e:	83 e0       	ldi	r24, 0x03	; 3
    2270:	9c e0       	ldi	r25, 0x0C	; 12
    2272:	9f 93       	push	r25
    2274:	8f 93       	push	r24
    2276:	81 e0       	ldi	r24, 0x01	; 1
    2278:	8f 93       	push	r24
    227a:	0e 94 ea 03 	call	0x7d4	; 0x7d4 <SendTrace>
    227e:	0f 90       	pop	r0
    2280:	0f 90       	pop	r0
    2282:	0f 90       	pop	r0
    2284:	80 e0       	ldi	r24, 0x00	; 0
    2286:	22 c0       	rjmp	.+68     	; 0x22cc <ProgramADXL345Interrupts+0x76>
    2288:	21 e0       	ldi	r18, 0x01	; 1
    228a:	30 e0       	ldi	r19, 0x00	; 0
    228c:	40 e0       	ldi	r20, 0x00	; 0
    228e:	50 e0       	ldi	r21, 0x00	; 0
    2290:	bc 01       	movw	r22, r24
    2292:	8f e2       	ldi	r24, 0x2F	; 47
    2294:	a8 de       	rcall	.-688    	; 0x1fe6 <SetADXL345Register>
    2296:	81 11       	cpse	r24, r1
    2298:	03 c0       	rjmp	.+6      	; 0x22a0 <ProgramADXL345Interrupts+0x4a>
    229a:	2a e7       	ldi	r18, 0x7A	; 122
    229c:	3f e0       	ldi	r19, 0x0F	; 15
    229e:	0b c0       	rjmp	.+22     	; 0x22b6 <ProgramADXL345Interrupts+0x60>
    22a0:	21 e0       	ldi	r18, 0x01	; 1
    22a2:	30 e0       	ldi	r19, 0x00	; 0
    22a4:	40 e0       	ldi	r20, 0x00	; 0
    22a6:	50 e0       	ldi	r21, 0x00	; 0
    22a8:	b8 01       	movw	r22, r16
    22aa:	8e e2       	ldi	r24, 0x2E	; 46
    22ac:	9c de       	rcall	.-712    	; 0x1fe6 <SetADXL345Register>
    22ae:	81 11       	cpse	r24, r1
    22b0:	0d c0       	rjmp	.+26     	; 0x22cc <ProgramADXL345Interrupts+0x76>
    22b2:	21 ea       	ldi	r18, 0xA1	; 161
    22b4:	3f e0       	ldi	r19, 0x0F	; 15
    22b6:	3f 93       	push	r19
    22b8:	2f 93       	push	r18
    22ba:	91 e0       	ldi	r25, 0x01	; 1
    22bc:	9f 93       	push	r25
    22be:	89 83       	std	Y+1, r24	; 0x01
    22c0:	0e 94 ea 03 	call	0x7d4	; 0x7d4 <SendTrace>
    22c4:	0f 90       	pop	r0
    22c6:	0f 90       	pop	r0
    22c8:	0f 90       	pop	r0
    22ca:	89 81       	ldd	r24, Y+1	; 0x01
    22cc:	0f 90       	pop	r0
    22ce:	df 91       	pop	r29
    22d0:	cf 91       	pop	r28
    22d2:	1f 91       	pop	r17
    22d4:	0f 91       	pop	r16
    22d6:	08 95       	ret

000022d8 <ProgramADXL345FifoControl>:
    22d8:	cf 93       	push	r28
    22da:	df 93       	push	r29
    22dc:	1f 92       	push	r1
    22de:	cd b7       	in	r28, 0x3d	; 61
    22e0:	de b7       	in	r29, 0x3e	; 62
    22e2:	20 91 fd 15 	lds	r18, 0x15FD
    22e6:	21 11       	cpse	r18, r1
    22e8:	0d c0       	rjmp	.+26     	; 0x2304 <ProgramADXL345FifoControl+0x2c>
    22ea:	83 e0       	ldi	r24, 0x03	; 3
    22ec:	9c e0       	ldi	r25, 0x0C	; 12
    22ee:	9f 93       	push	r25
    22f0:	8f 93       	push	r24
    22f2:	81 e0       	ldi	r24, 0x01	; 1
    22f4:	8f 93       	push	r24
    22f6:	0e 94 ea 03 	call	0x7d4	; 0x7d4 <SendTrace>
    22fa:	0f 90       	pop	r0
    22fc:	0f 90       	pop	r0
    22fe:	0f 90       	pop	r0
    2300:	80 e0       	ldi	r24, 0x00	; 0
    2302:	16 c0       	rjmp	.+44     	; 0x2330 <ProgramADXL345FifoControl+0x58>
    2304:	21 e0       	ldi	r18, 0x01	; 1
    2306:	30 e0       	ldi	r19, 0x00	; 0
    2308:	40 e0       	ldi	r20, 0x00	; 0
    230a:	50 e0       	ldi	r21, 0x00	; 0
    230c:	bc 01       	movw	r22, r24
    230e:	88 e3       	ldi	r24, 0x38	; 56
    2310:	6a de       	rcall	.-812    	; 0x1fe6 <SetADXL345Register>
    2312:	81 11       	cpse	r24, r1
    2314:	0d c0       	rjmp	.+26     	; 0x2330 <ProgramADXL345FifoControl+0x58>
    2316:	2b ec       	ldi	r18, 0xCB	; 203
    2318:	3f e0       	ldi	r19, 0x0F	; 15
    231a:	3f 93       	push	r19
    231c:	2f 93       	push	r18
    231e:	91 e0       	ldi	r25, 0x01	; 1
    2320:	9f 93       	push	r25
    2322:	89 83       	std	Y+1, r24	; 0x01
    2324:	0e 94 ea 03 	call	0x7d4	; 0x7d4 <SendTrace>
    2328:	0f 90       	pop	r0
    232a:	0f 90       	pop	r0
    232c:	0f 90       	pop	r0
    232e:	89 81       	ldd	r24, Y+1	; 0x01
    2330:	0f 90       	pop	r0
    2332:	df 91       	pop	r29
    2334:	cf 91       	pop	r28
    2336:	08 95       	ret

00002338 <ProgramADXL345DataFormat>:
    2338:	ff 92       	push	r15
    233a:	0f 93       	push	r16
    233c:	1f 93       	push	r17
    233e:	cf 93       	push	r28
    2340:	df 93       	push	r29
    2342:	00 d0       	rcall	.+0      	; 0x2344 <ProgramADXL345DataFormat+0xc>
    2344:	1f 92       	push	r1
    2346:	cd b7       	in	r28, 0x3d	; 61
    2348:	de b7       	in	r29, 0x3e	; 62
    234a:	8a 01       	movw	r16, r20
    234c:	f2 2e       	mov	r15, r18
    234e:	90 91 fd 15 	lds	r25, 0x15FD
    2352:	91 11       	cpse	r25, r1
    2354:	0d c0       	rjmp	.+26     	; 0x2370 <ProgramADXL345DataFormat+0x38>
    2356:	83 e0       	ldi	r24, 0x03	; 3
    2358:	9c e0       	ldi	r25, 0x0C	; 12
    235a:	9f 93       	push	r25
    235c:	8f 93       	push	r24
    235e:	81 e0       	ldi	r24, 0x01	; 1
    2360:	8f 93       	push	r24
    2362:	0e 94 ea 03 	call	0x7d4	; 0x7d4 <SendTrace>
    2366:	0f 90       	pop	r0
    2368:	0f 90       	pop	r0
    236a:	0f 90       	pop	r0
    236c:	80 e0       	ldi	r24, 0x00	; 0
    236e:	6b c0       	rjmp	.+214    	; 0x2446 <ProgramADXL345DataFormat+0x10e>
    2370:	9a 81       	ldd	r25, Y+2	; 0x02
    2372:	98 60       	ori	r25, 0x08	; 8
    2374:	60 fb       	bst	r22, 0
    2376:	95 f9       	bld	r25, 5
    2378:	83 70       	andi	r24, 0x03	; 3
    237a:	98 76       	andi	r25, 0x68	; 104
    237c:	98 2b       	or	r25, r24
    237e:	9f 7b       	andi	r25, 0xBF	; 191
    2380:	9a 83       	std	Y+2, r25	; 0x02
    2382:	21 e0       	ldi	r18, 0x01	; 1
    2384:	30 e0       	ldi	r19, 0x00	; 0
    2386:	40 e0       	ldi	r20, 0x00	; 0
    2388:	50 e0       	ldi	r21, 0x00	; 0
    238a:	be 01       	movw	r22, r28
    238c:	6e 5f       	subi	r22, 0xFE	; 254
    238e:	7f 4f       	sbci	r23, 0xFF	; 255
    2390:	81 e3       	ldi	r24, 0x31	; 49
    2392:	29 de       	rcall	.-942    	; 0x1fe6 <SetADXL345Register>
    2394:	81 11       	cpse	r24, r1
    2396:	03 c0       	rjmp	.+6      	; 0x239e <ProgramADXL345DataFormat+0x66>
    2398:	23 ef       	ldi	r18, 0xF3	; 243
    239a:	3f e0       	ldi	r19, 0x0F	; 15
    239c:	49 c0       	rjmp	.+146    	; 0x2430 <ProgramADXL345DataFormat+0xf8>
    239e:	21 e0       	ldi	r18, 0x01	; 1
    23a0:	30 e0       	ldi	r19, 0x00	; 0
    23a2:	40 e0       	ldi	r20, 0x00	; 0
    23a4:	50 e0       	ldi	r21, 0x00	; 0
    23a6:	be 01       	movw	r22, r28
    23a8:	6f 5f       	subi	r22, 0xFF	; 255
    23aa:	7f 4f       	sbci	r23, 0xFF	; 255
    23ac:	8c e2       	ldi	r24, 0x2C	; 44
    23ae:	86 db       	rcall	.-2292   	; 0x1abc <ReadADXL345Register>
    23b0:	81 11       	cpse	r24, r1
    23b2:	03 c0       	rjmp	.+6      	; 0x23ba <ProgramADXL345DataFormat+0x82>
    23b4:	2d ed       	ldi	r18, 0xDD	; 221
    23b6:	3e e0       	ldi	r19, 0x0E	; 14
    23b8:	3b c0       	rjmp	.+118    	; 0x2430 <ProgramADXL345DataFormat+0xf8>
    23ba:	9f 2d       	mov	r25, r15
    23bc:	9f 70       	andi	r25, 0x0F	; 15
    23be:	89 81       	ldd	r24, Y+1	; 0x01
    23c0:	80 7f       	andi	r24, 0xF0	; 240
    23c2:	89 2b       	or	r24, r25
    23c4:	89 83       	std	Y+1, r24	; 0x01
    23c6:	21 e0       	ldi	r18, 0x01	; 1
    23c8:	30 e0       	ldi	r19, 0x00	; 0
    23ca:	40 e0       	ldi	r20, 0x00	; 0
    23cc:	50 e0       	ldi	r21, 0x00	; 0
    23ce:	be 01       	movw	r22, r28
    23d0:	6f 5f       	subi	r22, 0xFF	; 255
    23d2:	7f 4f       	sbci	r23, 0xFF	; 255
    23d4:	8c e2       	ldi	r24, 0x2C	; 44
    23d6:	07 de       	rcall	.-1010   	; 0x1fe6 <SetADXL345Register>
    23d8:	81 11       	cpse	r24, r1
    23da:	03 c0       	rjmp	.+6      	; 0x23e2 <ProgramADXL345DataFormat+0xaa>
    23dc:	2e e1       	ldi	r18, 0x1E	; 30
    23de:	30 e1       	ldi	r19, 0x10	; 16
    23e0:	27 c0       	rjmp	.+78     	; 0x2430 <ProgramADXL345DataFormat+0xf8>
    23e2:	21 e0       	ldi	r18, 0x01	; 1
    23e4:	30 e0       	ldi	r19, 0x00	; 0
    23e6:	40 e0       	ldi	r20, 0x00	; 0
    23e8:	50 e0       	ldi	r21, 0x00	; 0
    23ea:	b8 01       	movw	r22, r16
    23ec:	8e e1       	ldi	r24, 0x1E	; 30
    23ee:	fb dd       	rcall	.-1034   	; 0x1fe6 <SetADXL345Register>
    23f0:	81 11       	cpse	r24, r1
    23f2:	03 c0       	rjmp	.+6      	; 0x23fa <ProgramADXL345DataFormat+0xc2>
    23f4:	21 e4       	ldi	r18, 0x41	; 65
    23f6:	30 e1       	ldi	r19, 0x10	; 16
    23f8:	1b c0       	rjmp	.+54     	; 0x2430 <ProgramADXL345DataFormat+0xf8>
    23fa:	21 e0       	ldi	r18, 0x01	; 1
    23fc:	30 e0       	ldi	r19, 0x00	; 0
    23fe:	40 e0       	ldi	r20, 0x00	; 0
    2400:	50 e0       	ldi	r21, 0x00	; 0
    2402:	b8 01       	movw	r22, r16
    2404:	6f 5f       	subi	r22, 0xFF	; 255
    2406:	7f 4f       	sbci	r23, 0xFF	; 255
    2408:	8f e1       	ldi	r24, 0x1F	; 31
    240a:	ed dd       	rcall	.-1062   	; 0x1fe6 <SetADXL345Register>
    240c:	81 11       	cpse	r24, r1
    240e:	03 c0       	rjmp	.+6      	; 0x2416 <ProgramADXL345DataFormat+0xde>
    2410:	2e e6       	ldi	r18, 0x6E	; 110
    2412:	30 e1       	ldi	r19, 0x10	; 16
    2414:	0d c0       	rjmp	.+26     	; 0x2430 <ProgramADXL345DataFormat+0xf8>
    2416:	b8 01       	movw	r22, r16
    2418:	6e 5f       	subi	r22, 0xFE	; 254
    241a:	7f 4f       	sbci	r23, 0xFF	; 255
    241c:	21 e0       	ldi	r18, 0x01	; 1
    241e:	30 e0       	ldi	r19, 0x00	; 0
    2420:	40 e0       	ldi	r20, 0x00	; 0
    2422:	50 e0       	ldi	r21, 0x00	; 0
    2424:	80 e2       	ldi	r24, 0x20	; 32
    2426:	df dd       	rcall	.-1090   	; 0x1fe6 <SetADXL345Register>
    2428:	81 11       	cpse	r24, r1
    242a:	0d c0       	rjmp	.+26     	; 0x2446 <ProgramADXL345DataFormat+0x10e>
    242c:	2b e9       	ldi	r18, 0x9B	; 155
    242e:	30 e1       	ldi	r19, 0x10	; 16
    2430:	3f 93       	push	r19
    2432:	2f 93       	push	r18
    2434:	91 e0       	ldi	r25, 0x01	; 1
    2436:	9f 93       	push	r25
    2438:	8b 83       	std	Y+3, r24	; 0x03
    243a:	0e 94 ea 03 	call	0x7d4	; 0x7d4 <SendTrace>
    243e:	0f 90       	pop	r0
    2440:	0f 90       	pop	r0
    2442:	0f 90       	pop	r0
    2444:	8b 81       	ldd	r24, Y+3	; 0x03
    2446:	0f 90       	pop	r0
    2448:	0f 90       	pop	r0
    244a:	0f 90       	pop	r0
    244c:	df 91       	pop	r29
    244e:	cf 91       	pop	r28
    2450:	1f 91       	pop	r17
    2452:	0f 91       	pop	r16
    2454:	ff 90       	pop	r15
    2456:	08 95       	ret

00002458 <ProgramADXL345ActivityInactivityDetection>:
    2458:	cf 93       	push	r28
    245a:	df 93       	push	r29
    245c:	00 d0       	rcall	.+0      	; 0x245e <ProgramADXL345ActivityInactivityDetection+0x6>
    245e:	00 d0       	rcall	.+0      	; 0x2460 <ProgramADXL345ActivityInactivityDetection+0x8>
    2460:	cd b7       	in	r28, 0x3d	; 61
    2462:	de b7       	in	r29, 0x3e	; 62
    2464:	69 83       	std	Y+1, r22	; 0x01
    2466:	4a 83       	std	Y+2, r20	; 0x02
    2468:	2b 83       	std	Y+3, r18	; 0x03
    246a:	20 91 fd 15 	lds	r18, 0x15FD
    246e:	21 11       	cpse	r18, r1
    2470:	0d c0       	rjmp	.+26     	; 0x248c <ProgramADXL345ActivityInactivityDetection+0x34>
    2472:	83 e0       	ldi	r24, 0x03	; 3
    2474:	9c e0       	ldi	r25, 0x0C	; 12
    2476:	9f 93       	push	r25
    2478:	8f 93       	push	r24
    247a:	81 e0       	ldi	r24, 0x01	; 1
    247c:	8f 93       	push	r24
    247e:	0e 94 ea 03 	call	0x7d4	; 0x7d4 <SendTrace>
    2482:	0f 90       	pop	r0
    2484:	0f 90       	pop	r0
    2486:	0f 90       	pop	r0
    2488:	80 e0       	ldi	r24, 0x00	; 0
    248a:	40 c0       	rjmp	.+128    	; 0x250c <ProgramADXL345ActivityInactivityDetection+0xb4>
    248c:	21 e0       	ldi	r18, 0x01	; 1
    248e:	30 e0       	ldi	r19, 0x00	; 0
    2490:	40 e0       	ldi	r20, 0x00	; 0
    2492:	50 e0       	ldi	r21, 0x00	; 0
    2494:	bc 01       	movw	r22, r24
    2496:	87 e2       	ldi	r24, 0x27	; 39
    2498:	a6 dd       	rcall	.-1204   	; 0x1fe6 <SetADXL345Register>
    249a:	81 11       	cpse	r24, r1
    249c:	03 c0       	rjmp	.+6      	; 0x24a4 <ProgramADXL345ActivityInactivityDetection+0x4c>
    249e:	28 ec       	ldi	r18, 0xC8	; 200
    24a0:	30 e1       	ldi	r19, 0x10	; 16
    24a2:	29 c0       	rjmp	.+82     	; 0x24f6 <ProgramADXL345ActivityInactivityDetection+0x9e>
    24a4:	21 e0       	ldi	r18, 0x01	; 1
    24a6:	30 e0       	ldi	r19, 0x00	; 0
    24a8:	40 e0       	ldi	r20, 0x00	; 0
    24aa:	50 e0       	ldi	r21, 0x00	; 0
    24ac:	be 01       	movw	r22, r28
    24ae:	6f 5f       	subi	r22, 0xFF	; 255
    24b0:	7f 4f       	sbci	r23, 0xFF	; 255
    24b2:	84 e2       	ldi	r24, 0x24	; 36
    24b4:	98 dd       	rcall	.-1232   	; 0x1fe6 <SetADXL345Register>
    24b6:	81 11       	cpse	r24, r1
    24b8:	03 c0       	rjmp	.+6      	; 0x24c0 <ProgramADXL345ActivityInactivityDetection+0x68>
    24ba:	25 ef       	ldi	r18, 0xF5	; 245
    24bc:	30 e1       	ldi	r19, 0x10	; 16
    24be:	1b c0       	rjmp	.+54     	; 0x24f6 <ProgramADXL345ActivityInactivityDetection+0x9e>
    24c0:	21 e0       	ldi	r18, 0x01	; 1
    24c2:	30 e0       	ldi	r19, 0x00	; 0
    24c4:	40 e0       	ldi	r20, 0x00	; 0
    24c6:	50 e0       	ldi	r21, 0x00	; 0
    24c8:	be 01       	movw	r22, r28
    24ca:	6e 5f       	subi	r22, 0xFE	; 254
    24cc:	7f 4f       	sbci	r23, 0xFF	; 255
    24ce:	85 e2       	ldi	r24, 0x25	; 37
    24d0:	8a dd       	rcall	.-1260   	; 0x1fe6 <SetADXL345Register>
    24d2:	81 11       	cpse	r24, r1
    24d4:	03 c0       	rjmp	.+6      	; 0x24dc <ProgramADXL345ActivityInactivityDetection+0x84>
    24d6:	2f e1       	ldi	r18, 0x1F	; 31
    24d8:	31 e1       	ldi	r19, 0x11	; 17
    24da:	0d c0       	rjmp	.+26     	; 0x24f6 <ProgramADXL345ActivityInactivityDetection+0x9e>
    24dc:	21 e0       	ldi	r18, 0x01	; 1
    24de:	30 e0       	ldi	r19, 0x00	; 0
    24e0:	40 e0       	ldi	r20, 0x00	; 0
    24e2:	50 e0       	ldi	r21, 0x00	; 0
    24e4:	be 01       	movw	r22, r28
    24e6:	6d 5f       	subi	r22, 0xFD	; 253
    24e8:	7f 4f       	sbci	r23, 0xFF	; 255
    24ea:	86 e2       	ldi	r24, 0x26	; 38
    24ec:	7c dd       	rcall	.-1288   	; 0x1fe6 <SetADXL345Register>
    24ee:	81 11       	cpse	r24, r1
    24f0:	0d c0       	rjmp	.+26     	; 0x250c <ProgramADXL345ActivityInactivityDetection+0xb4>
    24f2:	2b e4       	ldi	r18, 0x4B	; 75
    24f4:	31 e1       	ldi	r19, 0x11	; 17
    24f6:	3f 93       	push	r19
    24f8:	2f 93       	push	r18
    24fa:	91 e0       	ldi	r25, 0x01	; 1
    24fc:	9f 93       	push	r25
    24fe:	8c 83       	std	Y+4, r24	; 0x04
    2500:	0e 94 ea 03 	call	0x7d4	; 0x7d4 <SendTrace>
    2504:	0f 90       	pop	r0
    2506:	0f 90       	pop	r0
    2508:	0f 90       	pop	r0
    250a:	8c 81       	ldd	r24, Y+4	; 0x04
    250c:	0f 90       	pop	r0
    250e:	0f 90       	pop	r0
    2510:	0f 90       	pop	r0
    2512:	0f 90       	pop	r0
    2514:	df 91       	pop	r29
    2516:	cf 91       	pop	r28
    2518:	08 95       	ret

0000251a <CalculateCompassHeading>:
    251a:	3f 92       	push	r3
    251c:	4f 92       	push	r4
    251e:	5f 92       	push	r5
    2520:	6f 92       	push	r6
    2522:	7f 92       	push	r7
    2524:	8f 92       	push	r8
    2526:	9f 92       	push	r9
    2528:	af 92       	push	r10
    252a:	bf 92       	push	r11
    252c:	cf 92       	push	r12
    252e:	df 92       	push	r13
    2530:	ef 92       	push	r14
    2532:	ff 92       	push	r15
    2534:	0f 93       	push	r16
    2536:	1f 93       	push	r17
    2538:	cf 93       	push	r28
    253a:	df 93       	push	r29
    253c:	cd b7       	in	r28, 0x3d	; 61
    253e:	de b7       	in	r29, 0x3e	; 62
    2540:	62 97       	sbiw	r28, 0x12	; 18
    2542:	0f b6       	in	r0, 0x3f	; 63
    2544:	f8 94       	cli
    2546:	de bf       	out	0x3e, r29	; 62
    2548:	0f be       	out	0x3f, r0	; 63
    254a:	cd bf       	out	0x3d, r28	; 61
    254c:	9a 8b       	std	Y+18, r25	; 0x12
    254e:	89 8b       	std	Y+17, r24	; 0x11
    2550:	48 01       	movw	r8, r16
    2552:	59 01       	movw	r10, r18
    2554:	3e 2c       	mov	r3, r14
    2556:	86 01       	movw	r16, r12
    2558:	89 2b       	or	r24, r25
    255a:	09 f4       	brne	.+2      	; 0x255e <CalculateCompassHeading+0x44>
    255c:	da c0       	rjmp	.+436    	; 0x2712 <CalculateCompassHeading+0x1f8>
    255e:	c1 14       	cp	r12, r1
    2560:	d1 04       	cpc	r13, r1
    2562:	09 f4       	brne	.+2      	; 0x2566 <CalculateCompassHeading+0x4c>
    2564:	d6 c0       	rjmp	.+428    	; 0x2712 <CalculateCompassHeading+0x1f8>
    2566:	6a 01       	movw	r12, r20
    2568:	7b 01       	movw	r14, r22
    256a:	f7 fa       	bst	r15, 7
    256c:	f0 94       	com	r15
    256e:	f7 f8       	bld	r15, 7
    2570:	f0 94       	com	r15
    2572:	c7 01       	movw	r24, r14
    2574:	b6 01       	movw	r22, r12
    2576:	f5 d6       	rcall	.+3562   	; 0x3362 <cos>
    2578:	2b 01       	movw	r4, r22
    257a:	3c 01       	movw	r6, r24
    257c:	c7 01       	movw	r24, r14
    257e:	b6 01       	movw	r22, r12
    2580:	0e 94 cb 1b 	call	0x3796	; 0x3796 <sin>
    2584:	69 83       	std	Y+1, r22	; 0x01
    2586:	7a 83       	std	Y+2, r23	; 0x02
    2588:	8b 83       	std	Y+3, r24	; 0x03
    258a:	9c 83       	std	Y+4, r25	; 0x04
    258c:	c5 01       	movw	r24, r10
    258e:	b4 01       	movw	r22, r8
    2590:	e8 d6       	rcall	.+3536   	; 0x3362 <cos>
    2592:	6d 83       	std	Y+5, r22	; 0x05
    2594:	7e 83       	std	Y+6, r23	; 0x06
    2596:	8f 83       	std	Y+7, r24	; 0x07
    2598:	98 87       	std	Y+8, r25	; 0x08
    259a:	c5 01       	movw	r24, r10
    259c:	b4 01       	movw	r22, r8
    259e:	0e 94 cb 1b 	call	0x3796	; 0x3796 <sin>
    25a2:	69 87       	std	Y+9, r22	; 0x09
    25a4:	7a 87       	std	Y+10, r23	; 0x0a
    25a6:	8b 87       	std	Y+11, r24	; 0x0b
    25a8:	9c 87       	std	Y+12, r25	; 0x0c
    25aa:	a9 89       	ldd	r26, Y+17	; 0x11
    25ac:	ba 89       	ldd	r27, Y+18	; 0x12
    25ae:	1a 96       	adiw	r26, 0x0a	; 10
    25b0:	cd 90       	ld	r12, X+
    25b2:	dd 90       	ld	r13, X+
    25b4:	ed 90       	ld	r14, X+
    25b6:	fc 90       	ld	r15, X
    25b8:	1d 97       	sbiw	r26, 0x0d	; 13
    25ba:	1e 96       	adiw	r26, 0x0e	; 14
    25bc:	8d 91       	ld	r24, X+
    25be:	9d 91       	ld	r25, X+
    25c0:	0d 90       	ld	r0, X+
    25c2:	bc 91       	ld	r27, X
    25c4:	a0 2d       	mov	r26, r0
    25c6:	8d 87       	std	Y+13, r24	; 0x0d
    25c8:	9e 87       	std	Y+14, r25	; 0x0e
    25ca:	af 87       	std	Y+15, r26	; 0x0f
    25cc:	b8 8b       	std	Y+16, r27	; 0x10
    25ce:	2d 81       	ldd	r18, Y+5	; 0x05
    25d0:	3e 81       	ldd	r19, Y+6	; 0x06
    25d2:	4f 81       	ldd	r20, Y+7	; 0x07
    25d4:	58 85       	ldd	r21, Y+8	; 0x08
    25d6:	c7 01       	movw	r24, r14
    25d8:	b6 01       	movw	r22, r12
    25da:	0e 94 68 1b 	call	0x36d0	; 0x36d0 <__mulsf3>
    25de:	4b 01       	movw	r8, r22
    25e0:	5c 01       	movw	r10, r24
    25e2:	29 85       	ldd	r18, Y+9	; 0x09
    25e4:	3a 85       	ldd	r19, Y+10	; 0x0a
    25e6:	4b 85       	ldd	r20, Y+11	; 0x0b
    25e8:	5c 85       	ldd	r21, Y+12	; 0x0c
    25ea:	6d 85       	ldd	r22, Y+13	; 0x0d
    25ec:	7e 85       	ldd	r23, Y+14	; 0x0e
    25ee:	8f 85       	ldd	r24, Y+15	; 0x0f
    25f0:	98 89       	ldd	r25, Y+16	; 0x10
    25f2:	0e 94 68 1b 	call	0x36d0	; 0x36d0 <__mulsf3>
    25f6:	9b 01       	movw	r18, r22
    25f8:	ac 01       	movw	r20, r24
    25fa:	c5 01       	movw	r24, r10
    25fc:	b4 01       	movw	r22, r8
    25fe:	e6 d5       	rcall	.+3020   	; 0x31cc <__subsf3>
    2600:	4b 01       	movw	r8, r22
    2602:	5c 01       	movw	r10, r24
    2604:	e9 89       	ldd	r30, Y+17	; 0x11
    2606:	fa 89       	ldd	r31, Y+18	; 0x12
    2608:	26 81       	ldd	r18, Z+6	; 0x06
    260a:	37 81       	ldd	r19, Z+7	; 0x07
    260c:	40 85       	ldd	r20, Z+8	; 0x08
    260e:	51 85       	ldd	r21, Z+9	; 0x09
    2610:	c3 01       	movw	r24, r6
    2612:	b2 01       	movw	r22, r4
    2614:	0e 94 68 1b 	call	0x36d0	; 0x36d0 <__mulsf3>
    2618:	2b 01       	movw	r4, r22
    261a:	3c 01       	movw	r6, r24
    261c:	29 81       	ldd	r18, Y+1	; 0x01
    261e:	3a 81       	ldd	r19, Y+2	; 0x02
    2620:	4b 81       	ldd	r20, Y+3	; 0x03
    2622:	5c 81       	ldd	r21, Y+4	; 0x04
    2624:	c7 01       	movw	r24, r14
    2626:	b6 01       	movw	r22, r12
    2628:	0e 94 68 1b 	call	0x36d0	; 0x36d0 <__mulsf3>
    262c:	29 85       	ldd	r18, Y+9	; 0x09
    262e:	3a 85       	ldd	r19, Y+10	; 0x0a
    2630:	4b 85       	ldd	r20, Y+11	; 0x0b
    2632:	5c 85       	ldd	r21, Y+12	; 0x0c
    2634:	0e 94 68 1b 	call	0x36d0	; 0x36d0 <__mulsf3>
    2638:	9b 01       	movw	r18, r22
    263a:	ac 01       	movw	r20, r24
    263c:	c3 01       	movw	r24, r6
    263e:	b2 01       	movw	r22, r4
    2640:	c6 d5       	rcall	.+2956   	; 0x31ce <__addsf3>
    2642:	6b 01       	movw	r12, r22
    2644:	7c 01       	movw	r14, r24
    2646:	29 81       	ldd	r18, Y+1	; 0x01
    2648:	3a 81       	ldd	r19, Y+2	; 0x02
    264a:	4b 81       	ldd	r20, Y+3	; 0x03
    264c:	5c 81       	ldd	r21, Y+4	; 0x04
    264e:	6d 85       	ldd	r22, Y+13	; 0x0d
    2650:	7e 85       	ldd	r23, Y+14	; 0x0e
    2652:	8f 85       	ldd	r24, Y+15	; 0x0f
    2654:	98 89       	ldd	r25, Y+16	; 0x10
    2656:	0e 94 68 1b 	call	0x36d0	; 0x36d0 <__mulsf3>
    265a:	2d 81       	ldd	r18, Y+5	; 0x05
    265c:	3e 81       	ldd	r19, Y+6	; 0x06
    265e:	4f 81       	ldd	r20, Y+7	; 0x07
    2660:	58 85       	ldd	r21, Y+8	; 0x08
    2662:	0e 94 68 1b 	call	0x36d0	; 0x36d0 <__mulsf3>
    2666:	9b 01       	movw	r18, r22
    2668:	ac 01       	movw	r20, r24
    266a:	c7 01       	movw	r24, r14
    266c:	b6 01       	movw	r22, r12
    266e:	af d5       	rcall	.+2910   	; 0x31ce <__addsf3>
    2670:	a5 01       	movw	r20, r10
    2672:	94 01       	movw	r18, r8
    2674:	1f d6       	rcall	.+3134   	; 0x32b4 <atan2>
    2676:	2b ed       	ldi	r18, 0xDB	; 219
    2678:	3f e0       	ldi	r19, 0x0F	; 15
    267a:	49 e4       	ldi	r20, 0x49	; 73
    267c:	50 e4       	ldi	r21, 0x40	; 64
    267e:	a7 d5       	rcall	.+2894   	; 0x31ce <__addsf3>
    2680:	6b 01       	movw	r12, r22
    2682:	7c 01       	movw	r14, r24
    2684:	20 e0       	ldi	r18, 0x00	; 0
    2686:	30 e0       	ldi	r19, 0x00	; 0
    2688:	a9 01       	movw	r20, r18
    268a:	67 d6       	rcall	.+3278   	; 0x335a <__cmpsf2>
    268c:	2b ed       	ldi	r18, 0xDB	; 219
    268e:	3f e0       	ldi	r19, 0x0F	; 15
    2690:	49 ec       	ldi	r20, 0xC9	; 201
    2692:	50 e4       	ldi	r21, 0x40	; 64
    2694:	87 ff       	sbrs	r24, 7
    2696:	04 c0       	rjmp	.+8      	; 0x26a0 <CalculateCompassHeading+0x186>
    2698:	c7 01       	movw	r24, r14
    269a:	b6 01       	movw	r22, r12
    269c:	98 d5       	rcall	.+2864   	; 0x31ce <__addsf3>
    269e:	13 c0       	rjmp	.+38     	; 0x26c6 <CalculateCompassHeading+0x1ac>
    26a0:	c7 01       	movw	r24, r14
    26a2:	b6 01       	movw	r22, r12
    26a4:	0e 94 5d 1b 	call	0x36ba	; 0x36ba <__gesf2>
    26a8:	18 16       	cp	r1, r24
    26aa:	34 f0       	brlt	.+12     	; 0x26b8 <CalculateCompassHeading+0x19e>
    26ac:	f8 01       	movw	r30, r16
    26ae:	c0 82       	st	Z, r12
    26b0:	d1 82       	std	Z+1, r13	; 0x01
    26b2:	e2 82       	std	Z+2, r14	; 0x02
    26b4:	f3 82       	std	Z+3, r15	; 0x03
    26b6:	0d c0       	rjmp	.+26     	; 0x26d2 <CalculateCompassHeading+0x1b8>
    26b8:	2b ed       	ldi	r18, 0xDB	; 219
    26ba:	3f e0       	ldi	r19, 0x0F	; 15
    26bc:	49 ec       	ldi	r20, 0xC9	; 201
    26be:	50 e4       	ldi	r21, 0x40	; 64
    26c0:	c7 01       	movw	r24, r14
    26c2:	b6 01       	movw	r22, r12
    26c4:	83 d5       	rcall	.+2822   	; 0x31cc <__subsf3>
    26c6:	d8 01       	movw	r26, r16
    26c8:	6d 93       	st	X+, r22
    26ca:	7d 93       	st	X+, r23
    26cc:	8d 93       	st	X+, r24
    26ce:	9c 93       	st	X, r25
    26d0:	13 97       	sbiw	r26, 0x03	; 3
    26d2:	f8 01       	movw	r30, r16
    26d4:	20 81       	ld	r18, Z
    26d6:	31 81       	ldd	r19, Z+1	; 0x01
    26d8:	42 81       	ldd	r20, Z+2	; 0x02
    26da:	53 81       	ldd	r21, Z+3	; 0x03
    26dc:	6b ed       	ldi	r22, 0xDB	; 219
    26de:	7f e0       	ldi	r23, 0x0F	; 15
    26e0:	89 ec       	ldi	r24, 0xC9	; 201
    26e2:	90 e4       	ldi	r25, 0x40	; 64
    26e4:	73 d5       	rcall	.+2790   	; 0x31cc <__subsf3>
    26e6:	f1 e0       	ldi	r31, 0x01	; 1
    26e8:	3f 16       	cp	r3, r31
    26ea:	39 f0       	breq	.+14     	; 0x26fa <CalculateCompassHeading+0x1e0>
    26ec:	d8 01       	movw	r26, r16
    26ee:	6d 93       	st	X+, r22
    26f0:	7d 93       	st	X+, r23
    26f2:	8d 93       	st	X+, r24
    26f4:	9c 93       	st	X, r25
    26f6:	13 97       	sbiw	r26, 0x03	; 3
    26f8:	0a c0       	rjmp	.+20     	; 0x270e <CalculateCompassHeading+0x1f4>
    26fa:	20 ee       	ldi	r18, 0xE0	; 224
    26fc:	3e e2       	ldi	r19, 0x2E	; 46
    26fe:	45 e6       	ldi	r20, 0x65	; 101
    2700:	52 e4       	ldi	r21, 0x42	; 66
    2702:	e6 d7       	rcall	.+4044   	; 0x36d0 <__mulsf3>
    2704:	f8 01       	movw	r30, r16
    2706:	60 83       	st	Z, r22
    2708:	71 83       	std	Z+1, r23	; 0x01
    270a:	82 83       	std	Z+2, r24	; 0x02
    270c:	93 83       	std	Z+3, r25	; 0x03
    270e:	81 e0       	ldi	r24, 0x01	; 1
    2710:	01 c0       	rjmp	.+2      	; 0x2714 <CalculateCompassHeading+0x1fa>
    2712:	80 e0       	ldi	r24, 0x00	; 0
    2714:	62 96       	adiw	r28, 0x12	; 18
    2716:	0f b6       	in	r0, 0x3f	; 63
    2718:	f8 94       	cli
    271a:	de bf       	out	0x3e, r29	; 62
    271c:	0f be       	out	0x3f, r0	; 63
    271e:	cd bf       	out	0x3d, r28	; 61
    2720:	df 91       	pop	r29
    2722:	cf 91       	pop	r28
    2724:	1f 91       	pop	r17
    2726:	0f 91       	pop	r16
    2728:	ff 90       	pop	r15
    272a:	ef 90       	pop	r14
    272c:	df 90       	pop	r13
    272e:	cf 90       	pop	r12
    2730:	bf 90       	pop	r11
    2732:	af 90       	pop	r10
    2734:	9f 90       	pop	r9
    2736:	8f 90       	pop	r8
    2738:	7f 90       	pop	r7
    273a:	6f 90       	pop	r6
    273c:	5f 90       	pop	r5
    273e:	4f 90       	pop	r4
    2740:	3f 90       	pop	r3
    2742:	08 95       	ret

00002744 <ReadHMC5883LRegister>:
    2744:	af 92       	push	r10
    2746:	bf 92       	push	r11
    2748:	cf 92       	push	r12
    274a:	df 92       	push	r13
    274c:	ef 92       	push	r14
    274e:	ff 92       	push	r15
    2750:	0f 93       	push	r16
    2752:	cf 93       	push	r28
    2754:	df 93       	push	r29
    2756:	00 d0       	rcall	.+0      	; 0x2758 <ReadHMC5883LRegister+0x14>
    2758:	cd b7       	in	r28, 0x3d	; 61
    275a:	de b7       	in	r29, 0x3e	; 62
    275c:	89 83       	std	Y+1, r24	; 0x01
    275e:	5b 01       	movw	r10, r22
    2760:	69 01       	movw	r12, r18
    2762:	7a 01       	movw	r14, r20
    2764:	00 e0       	ldi	r16, 0x00	; 0
    2766:	2b e4       	ldi	r18, 0x4B	; 75
    2768:	36 e1       	ldi	r19, 0x16	; 22
    276a:	41 e0       	ldi	r20, 0x01	; 1
    276c:	50 e0       	ldi	r21, 0x00	; 0
    276e:	60 e0       	ldi	r22, 0x00	; 0
    2770:	70 e0       	ldi	r23, 0x00	; 0
    2772:	ce 01       	movw	r24, r28
    2774:	01 96       	adiw	r24, 0x01	; 1
    2776:	35 d8       	rcall	.-3990   	; 0x17e2 <TwiTransmit>
    2778:	81 11       	cpse	r24, r1
    277a:	03 c0       	rjmp	.+6      	; 0x2782 <ReadHMC5883LRegister+0x3e>
    277c:	25 eb       	ldi	r18, 0xB5	; 181
    277e:	3b e0       	ldi	r19, 0x0B	; 11
    2780:	0b c0       	rjmp	.+22     	; 0x2798 <ReadHMC5883LRegister+0x54>
    2782:	01 e0       	ldi	r16, 0x01	; 1
    2784:	2b e4       	ldi	r18, 0x4B	; 75
    2786:	36 e1       	ldi	r19, 0x16	; 22
    2788:	b7 01       	movw	r22, r14
    278a:	a6 01       	movw	r20, r12
    278c:	c5 01       	movw	r24, r10
    278e:	54 d9       	rcall	.-3416   	; 0x1a38 <TwiReceive>
    2790:	81 11       	cpse	r24, r1
    2792:	0d c0       	rjmp	.+26     	; 0x27ae <ReadHMC5883LRegister+0x6a>
    2794:	2d ed       	ldi	r18, 0xDD	; 221
    2796:	3b e0       	ldi	r19, 0x0B	; 11
    2798:	3f 93       	push	r19
    279a:	2f 93       	push	r18
    279c:	91 e0       	ldi	r25, 0x01	; 1
    279e:	9f 93       	push	r25
    27a0:	8a 83       	std	Y+2, r24	; 0x02
    27a2:	0e 94 ea 03 	call	0x7d4	; 0x7d4 <SendTrace>
    27a6:	0f 90       	pop	r0
    27a8:	0f 90       	pop	r0
    27aa:	0f 90       	pop	r0
    27ac:	8a 81       	ldd	r24, Y+2	; 0x02
    27ae:	0f 90       	pop	r0
    27b0:	0f 90       	pop	r0
    27b2:	df 91       	pop	r29
    27b4:	cf 91       	pop	r28
    27b6:	0f 91       	pop	r16
    27b8:	ff 90       	pop	r15
    27ba:	ef 90       	pop	r14
    27bc:	df 90       	pop	r13
    27be:	cf 90       	pop	r12
    27c0:	bf 90       	pop	r11
    27c2:	af 90       	pop	r10
    27c4:	08 95       	ret

000027c6 <PrintHMC5883LConfigRegisters>:
    27c6:	1f 93       	push	r17
    27c8:	cf 93       	push	r28
    27ca:	df 93       	push	r29
    27cc:	00 d0       	rcall	.+0      	; 0x27ce <PrintHMC5883LConfigRegisters+0x8>
    27ce:	cd b7       	in	r28, 0x3d	; 61
    27d0:	de b7       	in	r29, 0x3e	; 62
    27d2:	21 e0       	ldi	r18, 0x01	; 1
    27d4:	30 e0       	ldi	r19, 0x00	; 0
    27d6:	40 e0       	ldi	r20, 0x00	; 0
    27d8:	50 e0       	ldi	r21, 0x00	; 0
    27da:	be 01       	movw	r22, r28
    27dc:	6f 5f       	subi	r22, 0xFF	; 255
    27de:	7f 4f       	sbci	r23, 0xFF	; 255
    27e0:	80 e0       	ldi	r24, 0x00	; 0
    27e2:	b0 df       	rcall	.-160    	; 0x2744 <ReadHMC5883LRegister>
    27e4:	81 11       	cpse	r24, r1
    27e6:	02 c0       	rjmp	.+4      	; 0x27ec <PrintHMC5883LConfigRegisters+0x26>
    27e8:	80 e0       	ldi	r24, 0x00	; 0
    27ea:	46 c0       	rjmp	.+140    	; 0x2878 <PrintHMC5883LConfigRegisters+0xb2>
    27ec:	89 81       	ldd	r24, Y+1	; 0x01
    27ee:	1f 92       	push	r1
    27f0:	8f 93       	push	r24
    27f2:	82 e0       	ldi	r24, 0x02	; 2
    27f4:	92 e1       	ldi	r25, 0x12	; 18
    27f6:	9f 93       	push	r25
    27f8:	8f 93       	push	r24
    27fa:	14 e0       	ldi	r17, 0x04	; 4
    27fc:	1f 93       	push	r17
    27fe:	0e 94 ea 03 	call	0x7d4	; 0x7d4 <SendTrace>
    2802:	21 e0       	ldi	r18, 0x01	; 1
    2804:	30 e0       	ldi	r19, 0x00	; 0
    2806:	40 e0       	ldi	r20, 0x00	; 0
    2808:	50 e0       	ldi	r21, 0x00	; 0
    280a:	be 01       	movw	r22, r28
    280c:	6f 5f       	subi	r22, 0xFF	; 255
    280e:	7f 4f       	sbci	r23, 0xFF	; 255
    2810:	81 e0       	ldi	r24, 0x01	; 1
    2812:	98 df       	rcall	.-208    	; 0x2744 <ReadHMC5883LRegister>
    2814:	0f 90       	pop	r0
    2816:	0f 90       	pop	r0
    2818:	0f 90       	pop	r0
    281a:	0f 90       	pop	r0
    281c:	0f 90       	pop	r0
    281e:	88 23       	and	r24, r24
    2820:	19 f3       	breq	.-58     	; 0x27e8 <PrintHMC5883LConfigRegisters+0x22>
    2822:	89 81       	ldd	r24, Y+1	; 0x01
    2824:	1f 92       	push	r1
    2826:	8f 93       	push	r24
    2828:	88 e1       	ldi	r24, 0x18	; 24
    282a:	92 e1       	ldi	r25, 0x12	; 18
    282c:	9f 93       	push	r25
    282e:	8f 93       	push	r24
    2830:	1f 93       	push	r17
    2832:	0e 94 ea 03 	call	0x7d4	; 0x7d4 <SendTrace>
    2836:	21 e0       	ldi	r18, 0x01	; 1
    2838:	30 e0       	ldi	r19, 0x00	; 0
    283a:	40 e0       	ldi	r20, 0x00	; 0
    283c:	50 e0       	ldi	r21, 0x00	; 0
    283e:	be 01       	movw	r22, r28
    2840:	6f 5f       	subi	r22, 0xFF	; 255
    2842:	7f 4f       	sbci	r23, 0xFF	; 255
    2844:	82 e0       	ldi	r24, 0x02	; 2
    2846:	7e df       	rcall	.-260    	; 0x2744 <ReadHMC5883LRegister>
    2848:	0f 90       	pop	r0
    284a:	0f 90       	pop	r0
    284c:	0f 90       	pop	r0
    284e:	0f 90       	pop	r0
    2850:	0f 90       	pop	r0
    2852:	88 23       	and	r24, r24
    2854:	89 f0       	breq	.+34     	; 0x2878 <PrintHMC5883LConfigRegisters+0xb2>
    2856:	99 81       	ldd	r25, Y+1	; 0x01
    2858:	1f 92       	push	r1
    285a:	9f 93       	push	r25
    285c:	2e e2       	ldi	r18, 0x2E	; 46
    285e:	32 e1       	ldi	r19, 0x12	; 18
    2860:	3f 93       	push	r19
    2862:	2f 93       	push	r18
    2864:	1f 93       	push	r17
    2866:	8a 83       	std	Y+2, r24	; 0x02
    2868:	0e 94 ea 03 	call	0x7d4	; 0x7d4 <SendTrace>
    286c:	0f 90       	pop	r0
    286e:	0f 90       	pop	r0
    2870:	0f 90       	pop	r0
    2872:	0f 90       	pop	r0
    2874:	0f 90       	pop	r0
    2876:	8a 81       	ldd	r24, Y+2	; 0x02
    2878:	0f 90       	pop	r0
    287a:	0f 90       	pop	r0
    287c:	df 91       	pop	r29
    287e:	cf 91       	pop	r28
    2880:	1f 91       	pop	r17
    2882:	08 95       	ret

00002884 <ReadHMC5883LData>:
    2884:	0f 93       	push	r16
    2886:	1f 93       	push	r17
    2888:	cf 93       	push	r28
    288a:	df 93       	push	r29
    288c:	cd b7       	in	r28, 0x3d	; 61
    288e:	de b7       	in	r29, 0x3e	; 62
    2890:	27 97       	sbiw	r28, 0x07	; 7
    2892:	0f b6       	in	r0, 0x3f	; 63
    2894:	f8 94       	cli
    2896:	de bf       	out	0x3e, r29	; 62
    2898:	0f be       	out	0x3f, r0	; 63
    289a:	cd bf       	out	0x3d, r28	; 61
    289c:	8c 01       	movw	r16, r24
    289e:	26 e0       	ldi	r18, 0x06	; 6
    28a0:	30 e0       	ldi	r19, 0x00	; 0
    28a2:	40 e0       	ldi	r20, 0x00	; 0
    28a4:	50 e0       	ldi	r21, 0x00	; 0
    28a6:	be 01       	movw	r22, r28
    28a8:	6f 5f       	subi	r22, 0xFF	; 255
    28aa:	7f 4f       	sbci	r23, 0xFF	; 255
    28ac:	83 e0       	ldi	r24, 0x03	; 3
    28ae:	4a df       	rcall	.-364    	; 0x2744 <ReadHMC5883LRegister>
    28b0:	81 11       	cpse	r24, r1
    28b2:	0e c0       	rjmp	.+28     	; 0x28d0 <ReadHMC5883LData+0x4c>
    28b4:	20 e4       	ldi	r18, 0x40	; 64
    28b6:	32 e1       	ldi	r19, 0x12	; 18
    28b8:	3f 93       	push	r19
    28ba:	2f 93       	push	r18
    28bc:	91 e0       	ldi	r25, 0x01	; 1
    28be:	9f 93       	push	r25
    28c0:	8f 83       	std	Y+7, r24	; 0x07
    28c2:	0e 94 ea 03 	call	0x7d4	; 0x7d4 <SendTrace>
    28c6:	0f 90       	pop	r0
    28c8:	0f 90       	pop	r0
    28ca:	0f 90       	pop	r0
    28cc:	8f 81       	ldd	r24, Y+7	; 0x07
    28ce:	19 c0       	rjmp	.+50     	; 0x2902 <ReadHMC5883LData+0x7e>
    28d0:	29 81       	ldd	r18, Y+1	; 0x01
    28d2:	30 e0       	ldi	r19, 0x00	; 0
    28d4:	32 2f       	mov	r19, r18
    28d6:	22 27       	eor	r18, r18
    28d8:	9a 81       	ldd	r25, Y+2	; 0x02
    28da:	29 2b       	or	r18, r25
    28dc:	f8 01       	movw	r30, r16
    28de:	31 83       	std	Z+1, r19	; 0x01
    28e0:	20 83       	st	Z, r18
    28e2:	2b 81       	ldd	r18, Y+3	; 0x03
    28e4:	30 e0       	ldi	r19, 0x00	; 0
    28e6:	32 2f       	mov	r19, r18
    28e8:	22 27       	eor	r18, r18
    28ea:	9c 81       	ldd	r25, Y+4	; 0x04
    28ec:	29 2b       	or	r18, r25
    28ee:	35 83       	std	Z+5, r19	; 0x05
    28f0:	24 83       	std	Z+4, r18	; 0x04
    28f2:	2d 81       	ldd	r18, Y+5	; 0x05
    28f4:	30 e0       	ldi	r19, 0x00	; 0
    28f6:	32 2f       	mov	r19, r18
    28f8:	22 27       	eor	r18, r18
    28fa:	9e 81       	ldd	r25, Y+6	; 0x06
    28fc:	29 2b       	or	r18, r25
    28fe:	33 83       	std	Z+3, r19	; 0x03
    2900:	22 83       	std	Z+2, r18	; 0x02
    2902:	27 96       	adiw	r28, 0x07	; 7
    2904:	0f b6       	in	r0, 0x3f	; 63
    2906:	f8 94       	cli
    2908:	de bf       	out	0x3e, r29	; 62
    290a:	0f be       	out	0x3f, r0	; 63
    290c:	cd bf       	out	0x3d, r28	; 61
    290e:	df 91       	pop	r29
    2910:	cf 91       	pop	r28
    2912:	1f 91       	pop	r17
    2914:	0f 91       	pop	r16
    2916:	08 95       	ret

00002918 <SetHMC5883LRegister>:
    2918:	6f 92       	push	r6
    291a:	7f 92       	push	r7
    291c:	8f 92       	push	r8
    291e:	9f 92       	push	r9
    2920:	af 92       	push	r10
    2922:	bf 92       	push	r11
    2924:	df 92       	push	r13
    2926:	ef 92       	push	r14
    2928:	ff 92       	push	r15
    292a:	0f 93       	push	r16
    292c:	1f 93       	push	r17
    292e:	cf 93       	push	r28
    2930:	df 93       	push	r29
    2932:	1f 92       	push	r1
    2934:	cd b7       	in	r28, 0x3d	; 61
    2936:	de b7       	in	r29, 0x3e	; 62
    2938:	96 2f       	mov	r25, r22
    293a:	17 2f       	mov	r17, r23
    293c:	49 01       	movw	r8, r18
    293e:	5a 01       	movw	r10, r20
    2940:	ed b6       	in	r14, 0x3d	; 61
    2942:	fe b6       	in	r15, 0x3e	; 62
    2944:	ba 01       	movw	r22, r20
    2946:	a9 01       	movw	r20, r18
    2948:	4f 5f       	subi	r20, 0xFF	; 255
    294a:	5f 4f       	sbci	r21, 0xFF	; 255
    294c:	6f 4f       	sbci	r22, 0xFF	; 255
    294e:	7f 4f       	sbci	r23, 0xFF	; 255
    2950:	2d b7       	in	r18, 0x3d	; 61
    2952:	3e b7       	in	r19, 0x3e	; 62
    2954:	24 1b       	sub	r18, r20
    2956:	35 0b       	sbc	r19, r21
    2958:	0f b6       	in	r0, 0x3f	; 63
    295a:	f8 94       	cli
    295c:	3e bf       	out	0x3e, r19	; 62
    295e:	0f be       	out	0x3f, r0	; 63
    2960:	2d bf       	out	0x3d, r18	; 61
    2962:	ad b7       	in	r26, 0x3d	; 61
    2964:	be b7       	in	r27, 0x3e	; 62
    2966:	11 96       	adiw	r26, 0x01	; 1
    2968:	3d 01       	movw	r6, r26
    296a:	ed b7       	in	r30, 0x3d	; 61
    296c:	fe b7       	in	r31, 0x3e	; 62
    296e:	81 83       	std	Z+1, r24	; 0x01
    2970:	a9 2f       	mov	r26, r25
    2972:	b1 2f       	mov	r27, r17
    2974:	00 e0       	ldi	r16, 0x00	; 0
    2976:	10 e0       	ldi	r17, 0x00	; 0
    2978:	98 01       	movw	r18, r16
    297a:	08 15       	cp	r16, r8
    297c:	19 05       	cpc	r17, r9
    297e:	2a 05       	cpc	r18, r10
    2980:	3b 05       	cpc	r19, r11
    2982:	59 f0       	breq	.+22     	; 0x299a <SetHMC5883LRegister+0x82>
    2984:	0f 5f       	subi	r16, 0xFF	; 255
    2986:	1f 4f       	sbci	r17, 0xFF	; 255
    2988:	2f 4f       	sbci	r18, 0xFF	; 255
    298a:	3f 4f       	sbci	r19, 0xFF	; 255
    298c:	dd 90       	ld	r13, X+
    298e:	c3 01       	movw	r24, r6
    2990:	80 0f       	add	r24, r16
    2992:	91 1f       	adc	r25, r17
    2994:	fc 01       	movw	r30, r24
    2996:	d0 82       	st	Z, r13
    2998:	f0 cf       	rjmp	.-32     	; 0x297a <SetHMC5883LRegister+0x62>
    299a:	01 e0       	ldi	r16, 0x01	; 1
    299c:	2b e4       	ldi	r18, 0x4B	; 75
    299e:	36 e1       	ldi	r19, 0x16	; 22
    29a0:	c3 01       	movw	r24, r6
    29a2:	0e 94 f1 0b 	call	0x17e2	; 0x17e2 <TwiTransmit>
    29a6:	81 11       	cpse	r24, r1
    29a8:	0d c0       	rjmp	.+26     	; 0x29c4 <SetHMC5883LRegister+0xac>
    29aa:	25 eb       	ldi	r18, 0xB5	; 181
    29ac:	3b e0       	ldi	r19, 0x0B	; 11
    29ae:	3f 93       	push	r19
    29b0:	2f 93       	push	r18
    29b2:	91 e0       	ldi	r25, 0x01	; 1
    29b4:	9f 93       	push	r25
    29b6:	89 83       	std	Y+1, r24	; 0x01
    29b8:	0e 94 ea 03 	call	0x7d4	; 0x7d4 <SendTrace>
    29bc:	0f 90       	pop	r0
    29be:	0f 90       	pop	r0
    29c0:	0f 90       	pop	r0
    29c2:	89 81       	ldd	r24, Y+1	; 0x01
    29c4:	0f b6       	in	r0, 0x3f	; 63
    29c6:	f8 94       	cli
    29c8:	fe be       	out	0x3e, r15	; 62
    29ca:	0f be       	out	0x3f, r0	; 63
    29cc:	ed be       	out	0x3d, r14	; 61
    29ce:	0f 90       	pop	r0
    29d0:	df 91       	pop	r29
    29d2:	cf 91       	pop	r28
    29d4:	1f 91       	pop	r17
    29d6:	0f 91       	pop	r16
    29d8:	ff 90       	pop	r15
    29da:	ef 90       	pop	r14
    29dc:	df 90       	pop	r13
    29de:	bf 90       	pop	r11
    29e0:	af 90       	pop	r10
    29e2:	9f 90       	pop	r9
    29e4:	8f 90       	pop	r8
    29e6:	7f 90       	pop	r7
    29e8:	6f 90       	pop	r6
    29ea:	08 95       	ret

000029ec <IsHMC5883LDataReady>:
    29ec:	cf 93       	push	r28
    29ee:	df 93       	push	r29
    29f0:	00 d0       	rcall	.+0      	; 0x29f2 <IsHMC5883LDataReady+0x6>
    29f2:	cd b7       	in	r28, 0x3d	; 61
    29f4:	de b7       	in	r29, 0x3e	; 62
    29f6:	21 e0       	ldi	r18, 0x01	; 1
    29f8:	30 e0       	ldi	r19, 0x00	; 0
    29fa:	40 e0       	ldi	r20, 0x00	; 0
    29fc:	50 e0       	ldi	r21, 0x00	; 0
    29fe:	be 01       	movw	r22, r28
    2a00:	6f 5f       	subi	r22, 0xFF	; 255
    2a02:	7f 4f       	sbci	r23, 0xFF	; 255
    2a04:	89 e0       	ldi	r24, 0x09	; 9
    2a06:	9e de       	rcall	.-708    	; 0x2744 <ReadHMC5883LRegister>
    2a08:	81 11       	cpse	r24, r1
    2a0a:	03 c0       	rjmp	.+6      	; 0x2a12 <IsHMC5883LDataReady+0x26>
    2a0c:	21 e6       	ldi	r18, 0x61	; 97
    2a0e:	32 e1       	ldi	r19, 0x12	; 18
    2a10:	12 c0       	rjmp	.+36     	; 0x2a36 <IsHMC5883LDataReady+0x4a>
    2a12:	89 81       	ldd	r24, Y+1	; 0x01
    2a14:	80 ff       	sbrs	r24, 0
    2a16:	1b c0       	rjmp	.+54     	; 0x2a4e <IsHMC5883LDataReady+0x62>
    2a18:	82 60       	ori	r24, 0x02	; 2
    2a1a:	89 83       	std	Y+1, r24	; 0x01
    2a1c:	21 e0       	ldi	r18, 0x01	; 1
    2a1e:	30 e0       	ldi	r19, 0x00	; 0
    2a20:	40 e0       	ldi	r20, 0x00	; 0
    2a22:	50 e0       	ldi	r21, 0x00	; 0
    2a24:	be 01       	movw	r22, r28
    2a26:	6f 5f       	subi	r22, 0xFF	; 255
    2a28:	7f 4f       	sbci	r23, 0xFF	; 255
    2a2a:	89 e0       	ldi	r24, 0x09	; 9
    2a2c:	75 df       	rcall	.-278    	; 0x2918 <SetHMC5883LRegister>
    2a2e:	81 11       	cpse	r24, r1
    2a30:	0f c0       	rjmp	.+30     	; 0x2a50 <IsHMC5883LDataReady+0x64>
    2a32:	2f e7       	ldi	r18, 0x7F	; 127
    2a34:	32 e1       	ldi	r19, 0x12	; 18
    2a36:	3f 93       	push	r19
    2a38:	2f 93       	push	r18
    2a3a:	91 e0       	ldi	r25, 0x01	; 1
    2a3c:	9f 93       	push	r25
    2a3e:	8a 83       	std	Y+2, r24	; 0x02
    2a40:	0e 94 ea 03 	call	0x7d4	; 0x7d4 <SendTrace>
    2a44:	0f 90       	pop	r0
    2a46:	0f 90       	pop	r0
    2a48:	0f 90       	pop	r0
    2a4a:	8a 81       	ldd	r24, Y+2	; 0x02
    2a4c:	01 c0       	rjmp	.+2      	; 0x2a50 <IsHMC5883LDataReady+0x64>
    2a4e:	80 e0       	ldi	r24, 0x00	; 0
    2a50:	0f 90       	pop	r0
    2a52:	0f 90       	pop	r0
    2a54:	df 91       	pop	r29
    2a56:	cf 91       	pop	r28
    2a58:	08 95       	ret

00002a5a <ReadHMC5883LContinuousMeasurementData>:
    2a5a:	1f 93       	push	r17
    2a5c:	cf 93       	push	r28
    2a5e:	df 93       	push	r29
    2a60:	ec 01       	movw	r28, r24
    2a62:	80 91 fe 15 	lds	r24, 0x15FE
    2a66:	81 11       	cpse	r24, r1
    2a68:	03 c0       	rjmp	.+6      	; 0x2a70 <ReadHMC5883LContinuousMeasurementData+0x16>
    2a6a:	8d e9       	ldi	r24, 0x9D	; 157
    2a6c:	92 e1       	ldi	r25, 0x12	; 18
    2a6e:	06 c0       	rjmp	.+12     	; 0x2a7c <ReadHMC5883LContinuousMeasurementData+0x22>
    2a70:	80 91 4c 16 	lds	r24, 0x164C
    2a74:	88 23       	and	r24, r24
    2a76:	31 f0       	breq	.+12     	; 0x2a84 <ReadHMC5883LContinuousMeasurementData+0x2a>
    2a78:	8e eb       	ldi	r24, 0xBE	; 190
    2a7a:	92 e1       	ldi	r25, 0x12	; 18
    2a7c:	9f 93       	push	r25
    2a7e:	8f 93       	push	r24
    2a80:	81 e0       	ldi	r24, 0x01	; 1
    2a82:	4b c0       	rjmp	.+150    	; 0x2b1a <ReadHMC5883LContinuousMeasurementData+0xc0>
    2a84:	b3 df       	rcall	.-154    	; 0x29ec <IsHMC5883LDataReady>
    2a86:	88 23       	and	r24, r24
    2a88:	09 f4       	brne	.+2      	; 0x2a8c <ReadHMC5883LContinuousMeasurementData+0x32>
    2a8a:	42 c0       	rjmp	.+132    	; 0x2b10 <ReadHMC5883LContinuousMeasurementData+0xb6>
    2a8c:	ce 01       	movw	r24, r28
    2a8e:	fa de       	rcall	.-524    	; 0x2884 <ReadHMC5883LData>
    2a90:	18 2f       	mov	r17, r24
    2a92:	81 11       	cpse	r24, r1
    2a94:	0c c0       	rjmp	.+24     	; 0x2aae <ReadHMC5883LContinuousMeasurementData+0x54>
    2a96:	81 ef       	ldi	r24, 0xF1	; 241
    2a98:	92 e1       	ldi	r25, 0x12	; 18
    2a9a:	9f 93       	push	r25
    2a9c:	8f 93       	push	r24
    2a9e:	84 e0       	ldi	r24, 0x04	; 4
    2aa0:	8f 93       	push	r24
    2aa2:	0e 94 ea 03 	call	0x7d4	; 0x7d4 <SendTrace>
    2aa6:	0f 90       	pop	r0
    2aa8:	0f 90       	pop	r0
    2aaa:	0f 90       	pop	r0
    2aac:	3d c0       	rjmp	.+122    	; 0x2b28 <ReadHMC5883LContinuousMeasurementData+0xce>
    2aae:	68 81       	ld	r22, Y
    2ab0:	79 81       	ldd	r23, Y+1	; 0x01
    2ab2:	88 27       	eor	r24, r24
    2ab4:	77 fd       	sbrc	r23, 7
    2ab6:	80 95       	com	r24
    2ab8:	98 2f       	mov	r25, r24
    2aba:	f1 d4       	rcall	.+2530   	; 0x349e <__floatsisf>
    2abc:	20 e0       	ldi	r18, 0x00	; 0
    2abe:	30 e0       	ldi	r19, 0x00	; 0
    2ac0:	4a ef       	ldi	r20, 0xFA	; 250
    2ac2:	5e e3       	ldi	r21, 0x3E	; 62
    2ac4:	05 d6       	rcall	.+3082   	; 0x36d0 <__mulsf3>
    2ac6:	6e 83       	std	Y+6, r22	; 0x06
    2ac8:	7f 83       	std	Y+7, r23	; 0x07
    2aca:	88 87       	std	Y+8, r24	; 0x08
    2acc:	99 87       	std	Y+9, r25	; 0x09
    2ace:	6a 81       	ldd	r22, Y+2	; 0x02
    2ad0:	7b 81       	ldd	r23, Y+3	; 0x03
    2ad2:	88 27       	eor	r24, r24
    2ad4:	77 fd       	sbrc	r23, 7
    2ad6:	80 95       	com	r24
    2ad8:	98 2f       	mov	r25, r24
    2ada:	e1 d4       	rcall	.+2498   	; 0x349e <__floatsisf>
    2adc:	20 e0       	ldi	r18, 0x00	; 0
    2ade:	30 e0       	ldi	r19, 0x00	; 0
    2ae0:	4a ef       	ldi	r20, 0xFA	; 250
    2ae2:	5e e3       	ldi	r21, 0x3E	; 62
    2ae4:	f5 d5       	rcall	.+3050   	; 0x36d0 <__mulsf3>
    2ae6:	6a 87       	std	Y+10, r22	; 0x0a
    2ae8:	7b 87       	std	Y+11, r23	; 0x0b
    2aea:	8c 87       	std	Y+12, r24	; 0x0c
    2aec:	9d 87       	std	Y+13, r25	; 0x0d
    2aee:	6c 81       	ldd	r22, Y+4	; 0x04
    2af0:	7d 81       	ldd	r23, Y+5	; 0x05
    2af2:	88 27       	eor	r24, r24
    2af4:	77 fd       	sbrc	r23, 7
    2af6:	80 95       	com	r24
    2af8:	98 2f       	mov	r25, r24
    2afa:	d1 d4       	rcall	.+2466   	; 0x349e <__floatsisf>
    2afc:	20 e0       	ldi	r18, 0x00	; 0
    2afe:	30 e0       	ldi	r19, 0x00	; 0
    2b00:	4a ef       	ldi	r20, 0xFA	; 250
    2b02:	5e e3       	ldi	r21, 0x3E	; 62
    2b04:	e5 d5       	rcall	.+3018   	; 0x36d0 <__mulsf3>
    2b06:	6e 87       	std	Y+14, r22	; 0x0e
    2b08:	7f 87       	std	Y+15, r23	; 0x0f
    2b0a:	88 8b       	std	Y+16, r24	; 0x10
    2b0c:	99 8b       	std	Y+17, r25	; 0x11
    2b0e:	0c c0       	rjmp	.+24     	; 0x2b28 <ReadHMC5883LContinuousMeasurementData+0xce>
    2b10:	80 e1       	ldi	r24, 0x10	; 16
    2b12:	93 e1       	ldi	r25, 0x13	; 19
    2b14:	9f 93       	push	r25
    2b16:	8f 93       	push	r24
    2b18:	84 e0       	ldi	r24, 0x04	; 4
    2b1a:	8f 93       	push	r24
    2b1c:	0e 94 ea 03 	call	0x7d4	; 0x7d4 <SendTrace>
    2b20:	0f 90       	pop	r0
    2b22:	0f 90       	pop	r0
    2b24:	0f 90       	pop	r0
    2b26:	10 e0       	ldi	r17, 0x00	; 0
    2b28:	81 2f       	mov	r24, r17
    2b2a:	df 91       	pop	r29
    2b2c:	cf 91       	pop	r28
    2b2e:	1f 91       	pop	r17
    2b30:	08 95       	ret

00002b32 <CheckHMC5883LDeviceId>:
    2b32:	cf 93       	push	r28
    2b34:	df 93       	push	r29
    2b36:	00 d0       	rcall	.+0      	; 0x2b38 <CheckHMC5883LDeviceId+0x6>
    2b38:	cd b7       	in	r28, 0x3d	; 61
    2b3a:	de b7       	in	r29, 0x3e	; 62
    2b3c:	19 82       	std	Y+1, r1	; 0x01
    2b3e:	21 e0       	ldi	r18, 0x01	; 1
    2b40:	30 e0       	ldi	r19, 0x00	; 0
    2b42:	40 e0       	ldi	r20, 0x00	; 0
    2b44:	50 e0       	ldi	r21, 0x00	; 0
    2b46:	be 01       	movw	r22, r28
    2b48:	6f 5f       	subi	r22, 0xFF	; 255
    2b4a:	7f 4f       	sbci	r23, 0xFF	; 255
    2b4c:	8a e0       	ldi	r24, 0x0A	; 10
    2b4e:	fa dd       	rcall	.-1036   	; 0x2744 <ReadHMC5883LRegister>
    2b50:	81 11       	cpse	r24, r1
    2b52:	03 c0       	rjmp	.+6      	; 0x2b5a <CheckHMC5883LDeviceId+0x28>
    2b54:	20 e8       	ldi	r18, 0x80	; 128
    2b56:	33 e1       	ldi	r19, 0x13	; 19
    2b58:	1f c0       	rjmp	.+62     	; 0x2b98 <CheckHMC5883LDeviceId+0x66>
    2b5a:	89 81       	ldd	r24, Y+1	; 0x01
    2b5c:	88 34       	cpi	r24, 0x48	; 72
    2b5e:	79 f0       	breq	.+30     	; 0x2b7e <CheckHMC5883LDeviceId+0x4c>
    2b60:	1f 92       	push	r1
    2b62:	8f 93       	push	r24
    2b64:	8c ea       	ldi	r24, 0xAC	; 172
    2b66:	93 e1       	ldi	r25, 0x13	; 19
    2b68:	9f 93       	push	r25
    2b6a:	8f 93       	push	r24
    2b6c:	81 e0       	ldi	r24, 0x01	; 1
    2b6e:	8f 93       	push	r24
    2b70:	0e 94 ea 03 	call	0x7d4	; 0x7d4 <SendTrace>
    2b74:	0f 90       	pop	r0
    2b76:	0f 90       	pop	r0
    2b78:	0f 90       	pop	r0
    2b7a:	0f 90       	pop	r0
    2b7c:	0f 90       	pop	r0
    2b7e:	21 e0       	ldi	r18, 0x01	; 1
    2b80:	30 e0       	ldi	r19, 0x00	; 0
    2b82:	40 e0       	ldi	r20, 0x00	; 0
    2b84:	50 e0       	ldi	r21, 0x00	; 0
    2b86:	be 01       	movw	r22, r28
    2b88:	6f 5f       	subi	r22, 0xFF	; 255
    2b8a:	7f 4f       	sbci	r23, 0xFF	; 255
    2b8c:	8b e0       	ldi	r24, 0x0B	; 11
    2b8e:	da dd       	rcall	.-1100   	; 0x2744 <ReadHMC5883LRegister>
    2b90:	81 11       	cpse	r24, r1
    2b92:	0e c0       	rjmp	.+28     	; 0x2bb0 <CheckHMC5883LDeviceId+0x7e>
    2b94:	2d ed       	ldi	r18, 0xDD	; 221
    2b96:	33 e1       	ldi	r19, 0x13	; 19
    2b98:	3f 93       	push	r19
    2b9a:	2f 93       	push	r18
    2b9c:	91 e0       	ldi	r25, 0x01	; 1
    2b9e:	9f 93       	push	r25
    2ba0:	8a 83       	std	Y+2, r24	; 0x02
    2ba2:	0e 94 ea 03 	call	0x7d4	; 0x7d4 <SendTrace>
    2ba6:	0f 90       	pop	r0
    2ba8:	0f 90       	pop	r0
    2baa:	0f 90       	pop	r0
    2bac:	8a 81       	ldd	r24, Y+2	; 0x02
    2bae:	33 c0       	rjmp	.+102    	; 0x2c16 <CheckHMC5883LDeviceId+0xe4>
    2bb0:	89 81       	ldd	r24, Y+1	; 0x01
    2bb2:	84 33       	cpi	r24, 0x34	; 52
    2bb4:	79 f0       	breq	.+30     	; 0x2bd4 <CheckHMC5883LDeviceId+0xa2>
    2bb6:	1f 92       	push	r1
    2bb8:	8f 93       	push	r24
    2bba:	89 e0       	ldi	r24, 0x09	; 9
    2bbc:	94 e1       	ldi	r25, 0x14	; 20
    2bbe:	9f 93       	push	r25
    2bc0:	8f 93       	push	r24
    2bc2:	81 e0       	ldi	r24, 0x01	; 1
    2bc4:	8f 93       	push	r24
    2bc6:	0e 94 ea 03 	call	0x7d4	; 0x7d4 <SendTrace>
    2bca:	0f 90       	pop	r0
    2bcc:	0f 90       	pop	r0
    2bce:	0f 90       	pop	r0
    2bd0:	0f 90       	pop	r0
    2bd2:	0f 90       	pop	r0
    2bd4:	21 e0       	ldi	r18, 0x01	; 1
    2bd6:	30 e0       	ldi	r19, 0x00	; 0
    2bd8:	40 e0       	ldi	r20, 0x00	; 0
    2bda:	50 e0       	ldi	r21, 0x00	; 0
    2bdc:	be 01       	movw	r22, r28
    2bde:	6f 5f       	subi	r22, 0xFF	; 255
    2be0:	7f 4f       	sbci	r23, 0xFF	; 255
    2be2:	8c e0       	ldi	r24, 0x0C	; 12
    2be4:	af dd       	rcall	.-1186   	; 0x2744 <ReadHMC5883LRegister>
    2be6:	81 11       	cpse	r24, r1
    2be8:	03 c0       	rjmp	.+6      	; 0x2bf0 <CheckHMC5883LDeviceId+0xbe>
    2bea:	2a e3       	ldi	r18, 0x3A	; 58
    2bec:	34 e1       	ldi	r19, 0x14	; 20
    2bee:	d4 cf       	rjmp	.-88     	; 0x2b98 <CheckHMC5883LDeviceId+0x66>
    2bf0:	99 81       	ldd	r25, Y+1	; 0x01
    2bf2:	93 33       	cpi	r25, 0x33	; 51
    2bf4:	81 f0       	breq	.+32     	; 0x2c16 <CheckHMC5883LDeviceId+0xe4>
    2bf6:	1f 92       	push	r1
    2bf8:	9f 93       	push	r25
    2bfa:	86 e6       	ldi	r24, 0x66	; 102
    2bfc:	94 e1       	ldi	r25, 0x14	; 20
    2bfe:	9f 93       	push	r25
    2c00:	8f 93       	push	r24
    2c02:	81 e0       	ldi	r24, 0x01	; 1
    2c04:	8f 93       	push	r24
    2c06:	0e 94 ea 03 	call	0x7d4	; 0x7d4 <SendTrace>
    2c0a:	0f 90       	pop	r0
    2c0c:	0f 90       	pop	r0
    2c0e:	0f 90       	pop	r0
    2c10:	0f 90       	pop	r0
    2c12:	0f 90       	pop	r0
    2c14:	80 e0       	ldi	r24, 0x00	; 0
    2c16:	0f 90       	pop	r0
    2c18:	0f 90       	pop	r0
    2c1a:	df 91       	pop	r29
    2c1c:	cf 91       	pop	r28
    2c1e:	08 95       	ret

00002c20 <InitHMC5883LMagnetometer>:
    2c20:	cf 92       	push	r12
    2c22:	df 92       	push	r13
    2c24:	ef 92       	push	r14
    2c26:	ff 92       	push	r15
    2c28:	0f 93       	push	r16
    2c2a:	1f 93       	push	r17
    2c2c:	cf 93       	push	r28
    2c2e:	df 93       	push	r29
    2c30:	00 d0       	rcall	.+0      	; 0x2c32 <InitHMC5883LMagnetometer+0x12>
    2c32:	1f 92       	push	r1
    2c34:	cd b7       	in	r28, 0x3d	; 61
    2c36:	de b7       	in	r29, 0x3e	; 62
    2c38:	f8 2e       	mov	r15, r24
    2c3a:	d6 2e       	mov	r13, r22
    2c3c:	c4 2e       	mov	r12, r20
    2c3e:	e2 2e       	mov	r14, r18
    2c40:	90 91 4b 16 	lds	r25, 0x164B
    2c44:	91 70       	andi	r25, 0x01	; 1
    2c46:	9c 63       	ori	r25, 0x3C	; 60
    2c48:	90 93 4b 16 	sts	0x164B, r25
    2c4c:	80 91 fe 15 	lds	r24, 0x15FE
    2c50:	88 23       	and	r24, r24
    2c52:	09 f1       	breq	.+66     	; 0x2c96 <InitHMC5883LMagnetometer+0x76>
    2c54:	82 e0       	ldi	r24, 0x02	; 2
    2c56:	89 83       	std	Y+1, r24	; 0x01
    2c58:	21 e0       	ldi	r18, 0x01	; 1
    2c5a:	30 e0       	ldi	r19, 0x00	; 0
    2c5c:	40 e0       	ldi	r20, 0x00	; 0
    2c5e:	50 e0       	ldi	r21, 0x00	; 0
    2c60:	be 01       	movw	r22, r28
    2c62:	6f 5f       	subi	r22, 0xFF	; 255
    2c64:	7f 4f       	sbci	r23, 0xFF	; 255
    2c66:	58 de       	rcall	.-848    	; 0x2918 <SetHMC5883LRegister>
    2c68:	18 2f       	mov	r17, r24
    2c6a:	81 11       	cpse	r24, r1
    2c6c:	03 c0       	rjmp	.+6      	; 0x2c74 <InitHMC5883LMagnetometer+0x54>
    2c6e:	27 e9       	ldi	r18, 0x97	; 151
    2c70:	34 e1       	ldi	r19, 0x14	; 20
    2c72:	67 c0       	rjmp	.+206    	; 0x2d42 <InitHMC5883LMagnetometer+0x122>
    2c74:	80 e8       	ldi	r24, 0x80	; 128
    2c76:	8b 83       	std	Y+3, r24	; 0x03
    2c78:	21 e0       	ldi	r18, 0x01	; 1
    2c7a:	30 e0       	ldi	r19, 0x00	; 0
    2c7c:	40 e0       	ldi	r20, 0x00	; 0
    2c7e:	50 e0       	ldi	r21, 0x00	; 0
    2c80:	be 01       	movw	r22, r28
    2c82:	6d 5f       	subi	r22, 0xFD	; 253
    2c84:	7f 4f       	sbci	r23, 0xFF	; 255
    2c86:	80 e0       	ldi	r24, 0x00	; 0
    2c88:	47 de       	rcall	.-882    	; 0x2918 <SetHMC5883LRegister>
    2c8a:	18 2f       	mov	r17, r24
    2c8c:	81 11       	cpse	r24, r1
    2c8e:	12 c0       	rjmp	.+36     	; 0x2cb4 <InitHMC5883LMagnetometer+0x94>
    2c90:	2a ec       	ldi	r18, 0xCA	; 202
    2c92:	34 e1       	ldi	r19, 0x14	; 20
    2c94:	56 c0       	rjmp	.+172    	; 0x2d42 <InitHMC5883LMagnetometer+0x122>
    2c96:	4d df       	rcall	.-358    	; 0x2b32 <CheckHMC5883LDeviceId>
    2c98:	88 23       	and	r24, r24
    2c9a:	09 f4       	brne	.+2      	; 0x2c9e <InitHMC5883LMagnetometer+0x7e>
    2c9c:	61 c0       	rjmp	.+194    	; 0x2d60 <InitHMC5883LMagnetometer+0x140>
    2c9e:	e1 e0       	ldi	r30, 0x01	; 1
    2ca0:	f5 e1       	ldi	r31, 0x15	; 21
    2ca2:	ff 93       	push	r31
    2ca4:	ef 93       	push	r30
    2ca6:	84 e0       	ldi	r24, 0x04	; 4
    2ca8:	8f 93       	push	r24
    2caa:	0e 94 ea 03 	call	0x7d4	; 0x7d4 <SendTrace>
    2cae:	0f 90       	pop	r0
    2cb0:	0f 90       	pop	r0
    2cb2:	0f 90       	pop	r0
    2cb4:	8f 2d       	mov	r24, r15
    2cb6:	83 70       	andi	r24, 0x03	; 3
    2cb8:	89 83       	std	Y+1, r24	; 0x01
    2cba:	21 e0       	ldi	r18, 0x01	; 1
    2cbc:	30 e0       	ldi	r19, 0x00	; 0
    2cbe:	40 e0       	ldi	r20, 0x00	; 0
    2cc0:	50 e0       	ldi	r21, 0x00	; 0
    2cc2:	be 01       	movw	r22, r28
    2cc4:	6f 5f       	subi	r22, 0xFF	; 255
    2cc6:	7f 4f       	sbci	r23, 0xFF	; 255
    2cc8:	82 e0       	ldi	r24, 0x02	; 2
    2cca:	26 de       	rcall	.-948    	; 0x2918 <SetHMC5883LRegister>
    2ccc:	18 2f       	mov	r17, r24
    2cce:	81 11       	cpse	r24, r1
    2cd0:	03 c0       	rjmp	.+6      	; 0x2cd8 <InitHMC5883LMagnetometer+0xb8>
    2cd2:	2b e1       	ldi	r18, 0x1B	; 27
    2cd4:	35 e1       	ldi	r19, 0x15	; 21
    2cd6:	35 c0       	rjmp	.+106    	; 0x2d42 <InitHMC5883LMagnetometer+0x122>
    2cd8:	f0 92 4c 16 	sts	0x164C, r15
    2cdc:	02 95       	swap	r16
    2cde:	00 0f       	add	r16, r16
    2ce0:	00 7e       	andi	r16, 0xE0	; 224
    2ce2:	0a 83       	std	Y+2, r16	; 0x02
    2ce4:	21 e0       	ldi	r18, 0x01	; 1
    2ce6:	30 e0       	ldi	r19, 0x00	; 0
    2ce8:	40 e0       	ldi	r20, 0x00	; 0
    2cea:	50 e0       	ldi	r21, 0x00	; 0
    2cec:	be 01       	movw	r22, r28
    2cee:	6e 5f       	subi	r22, 0xFE	; 254
    2cf0:	7f 4f       	sbci	r23, 0xFF	; 255
    2cf2:	81 e0       	ldi	r24, 0x01	; 1
    2cf4:	11 de       	rcall	.-990    	; 0x2918 <SetHMC5883LRegister>
    2cf6:	18 2f       	mov	r17, r24
    2cf8:	81 11       	cpse	r24, r1
    2cfa:	03 c0       	rjmp	.+6      	; 0x2d02 <InitHMC5883LMagnetometer+0xe2>
    2cfc:	2a e3       	ldi	r18, 0x3A	; 58
    2cfe:	35 e1       	ldi	r19, 0x15	; 21
    2d00:	20 c0       	rjmp	.+64     	; 0x2d42 <InitHMC5883LMagnetometer+0x122>
    2d02:	4c 2d       	mov	r20, r12
    2d04:	47 70       	andi	r20, 0x07	; 7
    2d06:	44 0f       	add	r20, r20
    2d08:	44 0f       	add	r20, r20
    2d0a:	8b 81       	ldd	r24, Y+3	; 0x03
    2d0c:	80 7e       	andi	r24, 0xE0	; 224
    2d0e:	9d 2d       	mov	r25, r13
    2d10:	93 70       	andi	r25, 0x03	; 3
    2d12:	84 2b       	or	r24, r20
    2d14:	89 2b       	or	r24, r25
    2d16:	2e 2d       	mov	r18, r14
    2d18:	23 70       	andi	r18, 0x03	; 3
    2d1a:	22 95       	swap	r18
    2d1c:	22 0f       	add	r18, r18
    2d1e:	20 7e       	andi	r18, 0xE0	; 224
    2d20:	8f 79       	andi	r24, 0x9F	; 159
    2d22:	82 2b       	or	r24, r18
    2d24:	8b 83       	std	Y+3, r24	; 0x03
    2d26:	21 e0       	ldi	r18, 0x01	; 1
    2d28:	30 e0       	ldi	r19, 0x00	; 0
    2d2a:	40 e0       	ldi	r20, 0x00	; 0
    2d2c:	50 e0       	ldi	r21, 0x00	; 0
    2d2e:	be 01       	movw	r22, r28
    2d30:	6d 5f       	subi	r22, 0xFD	; 253
    2d32:	7f 4f       	sbci	r23, 0xFF	; 255
    2d34:	80 e0       	ldi	r24, 0x00	; 0
    2d36:	f0 dd       	rcall	.-1056   	; 0x2918 <SetHMC5883LRegister>
    2d38:	18 2f       	mov	r17, r24
    2d3a:	81 11       	cpse	r24, r1
    2d3c:	0c c0       	rjmp	.+24     	; 0x2d56 <InitHMC5883LMagnetometer+0x136>
    2d3e:	2d e5       	ldi	r18, 0x5D	; 93
    2d40:	35 e1       	ldi	r19, 0x15	; 21
    2d42:	3f 93       	push	r19
    2d44:	2f 93       	push	r18
    2d46:	81 e0       	ldi	r24, 0x01	; 1
    2d48:	8f 93       	push	r24
    2d4a:	0e 94 ea 03 	call	0x7d4	; 0x7d4 <SendTrace>
    2d4e:	0f 90       	pop	r0
    2d50:	0f 90       	pop	r0
    2d52:	0f 90       	pop	r0
    2d54:	06 c0       	rjmp	.+12     	; 0x2d62 <InitHMC5883LMagnetometer+0x142>
    2d56:	37 dd       	rcall	.-1426   	; 0x27c6 <PrintHMC5883LConfigRegisters>
    2d58:	81 e0       	ldi	r24, 0x01	; 1
    2d5a:	80 93 fe 15 	sts	0x15FE, r24
    2d5e:	01 c0       	rjmp	.+2      	; 0x2d62 <InitHMC5883LMagnetometer+0x142>
    2d60:	10 e0       	ldi	r17, 0x00	; 0
    2d62:	81 2f       	mov	r24, r17
    2d64:	0f 90       	pop	r0
    2d66:	0f 90       	pop	r0
    2d68:	0f 90       	pop	r0
    2d6a:	df 91       	pop	r29
    2d6c:	cf 91       	pop	r28
    2d6e:	1f 91       	pop	r17
    2d70:	0f 91       	pop	r16
    2d72:	ff 90       	pop	r15
    2d74:	ef 90       	pop	r14
    2d76:	df 90       	pop	r13
    2d78:	cf 90       	pop	r12
    2d7a:	08 95       	ret

00002d7c <CalculatePulse>:
    2d7c:	2f 92       	push	r2
    2d7e:	3f 92       	push	r3
    2d80:	4f 92       	push	r4
    2d82:	5f 92       	push	r5
    2d84:	6f 92       	push	r6
    2d86:	7f 92       	push	r7
    2d88:	8f 92       	push	r8
    2d8a:	9f 92       	push	r9
    2d8c:	af 92       	push	r10
    2d8e:	bf 92       	push	r11
    2d90:	cf 92       	push	r12
    2d92:	df 92       	push	r13
    2d94:	ef 92       	push	r14
    2d96:	ff 92       	push	r15
    2d98:	0f 93       	push	r16
    2d9a:	1f 93       	push	r17
    2d9c:	cf 93       	push	r28
    2d9e:	df 93       	push	r29
    2da0:	cd b7       	in	r28, 0x3d	; 61
    2da2:	de b7       	in	r29, 0x3e	; 62
    2da4:	a4 97       	sbiw	r28, 0x24	; 36
    2da6:	0f b6       	in	r0, 0x3f	; 63
    2da8:	f8 94       	cli
    2daa:	de bf       	out	0x3e, r29	; 62
    2dac:	0f be       	out	0x3f, r0	; 63
    2dae:	cd bf       	out	0x3d, r28	; 61
    2db0:	5b 01       	movw	r10, r22
    2db2:	8a 01       	movw	r16, r20
    2db4:	bc 01       	movw	r22, r24
    2db6:	80 e0       	ldi	r24, 0x00	; 0
    2db8:	90 e0       	ldi	r25, 0x00	; 0
    2dba:	6f d3       	rcall	.+1758   	; 0x349a <__floatunsisf>
    2dbc:	20 e0       	ldi	r18, 0x00	; 0
    2dbe:	30 e0       	ldi	r19, 0x00	; 0
    2dc0:	4a ea       	ldi	r20, 0xAA	; 170
    2dc2:	52 e4       	ldi	r21, 0x42	; 66
    2dc4:	d1 d2       	rcall	.+1442   	; 0x3368 <__divsf3>
    2dc6:	6b 01       	movw	r12, r22
    2dc8:	7c 01       	movw	r14, r24
    2dca:	60 93 4d 16 	sts	0x164D, r22
    2dce:	70 93 4e 16 	sts	0x164E, r23
    2dd2:	80 93 4f 16 	sts	0x164F, r24
    2dd6:	90 93 50 16 	sts	0x1650, r25
    2dda:	b5 01       	movw	r22, r10
    2ddc:	80 e0       	ldi	r24, 0x00	; 0
    2dde:	90 e0       	ldi	r25, 0x00	; 0
    2de0:	5c d3       	rcall	.+1720   	; 0x349a <__floatunsisf>
    2de2:	20 e0       	ldi	r18, 0x00	; 0
    2de4:	30 e0       	ldi	r19, 0x00	; 0
    2de6:	4f ef       	ldi	r20, 0xFF	; 255
    2de8:	53 e4       	ldi	r21, 0x43	; 67
    2dea:	f0 d1       	rcall	.+992    	; 0x31cc <__subsf3>
    2dec:	9b 01       	movw	r18, r22
    2dee:	ac 01       	movw	r20, r24
    2df0:	ee d1       	rcall	.+988    	; 0x31ce <__addsf3>
    2df2:	20 e0       	ldi	r18, 0x00	; 0
    2df4:	30 e0       	ldi	r19, 0x00	; 0
    2df6:	4f e7       	ldi	r20, 0x7F	; 127
    2df8:	54 e4       	ldi	r21, 0x44	; 68
    2dfa:	b6 d2       	rcall	.+1388   	; 0x3368 <__divsf3>
    2dfc:	2b 01       	movw	r4, r22
    2dfe:	3c 01       	movw	r6, r24
    2e00:	b8 01       	movw	r22, r16
    2e02:	80 e0       	ldi	r24, 0x00	; 0
    2e04:	90 e0       	ldi	r25, 0x00	; 0
    2e06:	49 d3       	rcall	.+1682   	; 0x349a <__floatunsisf>
    2e08:	20 e0       	ldi	r18, 0x00	; 0
    2e0a:	30 e0       	ldi	r19, 0x00	; 0
    2e0c:	4f ef       	ldi	r20, 0xFF	; 255
    2e0e:	53 e4       	ldi	r21, 0x43	; 67
    2e10:	dd d1       	rcall	.+954    	; 0x31cc <__subsf3>
    2e12:	9b 01       	movw	r18, r22
    2e14:	ac 01       	movw	r20, r24
    2e16:	db d1       	rcall	.+950    	; 0x31ce <__addsf3>
    2e18:	20 e0       	ldi	r18, 0x00	; 0
    2e1a:	30 e0       	ldi	r19, 0x00	; 0
    2e1c:	4f e7       	ldi	r20, 0x7F	; 127
    2e1e:	54 e4       	ldi	r21, 0x44	; 68
    2e20:	a3 d2       	rcall	.+1350   	; 0x3368 <__divsf3>
    2e22:	4b 01       	movw	r8, r22
    2e24:	5c 01       	movw	r10, r24
    2e26:	20 e0       	ldi	r18, 0x00	; 0
    2e28:	30 e0       	ldi	r19, 0x00	; 0
    2e2a:	40 e8       	ldi	r20, 0x80	; 128
    2e2c:	5d e3       	ldi	r21, 0x3D	; 61
    2e2e:	c7 01       	movw	r24, r14
    2e30:	b6 01       	movw	r22, r12
    2e32:	4e d4       	rcall	.+2204   	; 0x36d0 <__mulsf3>
    2e34:	6b 01       	movw	r12, r22
    2e36:	7c 01       	movw	r14, r24
    2e38:	9b 01       	movw	r18, r22
    2e3a:	ac 01       	movw	r20, r24
    2e3c:	c3 01       	movw	r24, r6
    2e3e:	b2 01       	movw	r22, r4
    2e40:	47 d4       	rcall	.+2190   	; 0x36d0 <__mulsf3>
    2e42:	6d 8f       	std	Y+29, r22	; 0x1d
    2e44:	7e 8f       	std	Y+30, r23	; 0x1e
    2e46:	8f 8f       	std	Y+31, r24	; 0x1f
    2e48:	98 a3       	std	Y+32, r25	; 0x20
    2e4a:	a7 01       	movw	r20, r14
    2e4c:	96 01       	movw	r18, r12
    2e4e:	c5 01       	movw	r24, r10
    2e50:	b4 01       	movw	r22, r8
    2e52:	3e d4       	rcall	.+2172   	; 0x36d0 <__mulsf3>
    2e54:	69 a3       	std	Y+33, r22	; 0x21
    2e56:	7a a3       	std	Y+34, r23	; 0x22
    2e58:	8b a3       	std	Y+35, r24	; 0x23
    2e5a:	9c a3       	std	Y+36, r25	; 0x24
    2e5c:	be 01       	movw	r22, r28
    2e5e:	6f 5f       	subi	r22, 0xFF	; 255
    2e60:	7f 4f       	sbci	r23, 0xFF	; 255
    2e62:	81 e0       	ldi	r24, 0x01	; 1
    2e64:	0e 94 6e 0e 	call	0x1cdc	; 0x1cdc <ReadADXL345AccAndTiltData>
    2e68:	81 11       	cpse	r24, r1
    2e6a:	24 c0       	rjmp	.+72     	; 0x2eb4 <CalculatePulse+0x138>
    2e6c:	87 e9       	ldi	r24, 0x97	; 151
    2e6e:	92 e0       	ldi	r25, 0x02	; 2
    2e70:	9f 93       	push	r25
    2e72:	8f 93       	push	r24
    2e74:	81 e0       	ldi	r24, 0x01	; 1
    2e76:	8f 93       	push	r24
    2e78:	0e 94 ea 03 	call	0x7d4	; 0x7d4 <SendTrace>
    2e7c:	80 91 03 16 	lds	r24, 0x1603
    2e80:	90 91 04 16 	lds	r25, 0x1604
    2e84:	a0 91 05 16 	lds	r26, 0x1605
    2e88:	b0 91 06 16 	lds	r27, 0x1606
    2e8c:	89 83       	std	Y+1, r24	; 0x01
    2e8e:	9a 83       	std	Y+2, r25	; 0x02
    2e90:	ab 83       	std	Y+3, r26	; 0x03
    2e92:	bc 83       	std	Y+4, r27	; 0x04
    2e94:	80 91 ff 15 	lds	r24, 0x15FF
    2e98:	90 91 00 16 	lds	r25, 0x1600
    2e9c:	a0 91 01 16 	lds	r26, 0x1601
    2ea0:	b0 91 02 16 	lds	r27, 0x1602
    2ea4:	8d 83       	std	Y+5, r24	; 0x05
    2ea6:	9e 83       	std	Y+6, r25	; 0x06
    2ea8:	af 83       	std	Y+7, r26	; 0x07
    2eaa:	b8 87       	std	Y+8, r27	; 0x08
    2eac:	0f 90       	pop	r0
    2eae:	0f 90       	pop	r0
    2eb0:	0f 90       	pop	r0
    2eb2:	18 c0       	rjmp	.+48     	; 0x2ee4 <CalculatePulse+0x168>
    2eb4:	89 81       	ldd	r24, Y+1	; 0x01
    2eb6:	9a 81       	ldd	r25, Y+2	; 0x02
    2eb8:	ab 81       	ldd	r26, Y+3	; 0x03
    2eba:	bc 81       	ldd	r27, Y+4	; 0x04
    2ebc:	80 93 03 16 	sts	0x1603, r24
    2ec0:	90 93 04 16 	sts	0x1604, r25
    2ec4:	a0 93 05 16 	sts	0x1605, r26
    2ec8:	b0 93 06 16 	sts	0x1606, r27
    2ecc:	8d 81       	ldd	r24, Y+5	; 0x05
    2ece:	9e 81       	ldd	r25, Y+6	; 0x06
    2ed0:	af 81       	ldd	r26, Y+7	; 0x07
    2ed2:	b8 85       	ldd	r27, Y+8	; 0x08
    2ed4:	80 93 ff 15 	sts	0x15FF, r24
    2ed8:	90 93 00 16 	sts	0x1600, r25
    2edc:	a0 93 01 16 	sts	0x1601, r26
    2ee0:	b0 93 02 16 	sts	0x1602, r27
    2ee4:	80 91 4d 16 	lds	r24, 0x164D
    2ee8:	89 8f       	std	Y+25, r24	; 0x19
    2eea:	90 91 4e 16 	lds	r25, 0x164E
    2eee:	9a 8f       	std	Y+26, r25	; 0x1a
    2ef0:	80 91 4f 16 	lds	r24, 0x164F
    2ef4:	8b 8f       	std	Y+27, r24	; 0x1b
    2ef6:	90 91 50 16 	lds	r25, 0x1650
    2efa:	9c 8f       	std	Y+28, r25	; 0x1c
    2efc:	20 e0       	ldi	r18, 0x00	; 0
    2efe:	30 e0       	ldi	r19, 0x00	; 0
    2f00:	40 e8       	ldi	r20, 0x80	; 128
    2f02:	5d e3       	ldi	r21, 0x3D	; 61
    2f04:	b9 8d       	ldd	r27, Y+25	; 0x19
    2f06:	aa 8d       	ldd	r26, Y+26	; 0x1a
    2f08:	6b 2f       	mov	r22, r27
    2f0a:	7a 2f       	mov	r23, r26
    2f0c:	e1 d3       	rcall	.+1986   	; 0x36d0 <__mulsf3>
    2f0e:	6b 01       	movw	r12, r22
    2f10:	7c 01       	movw	r14, r24
    2f12:	20 e0       	ldi	r18, 0x00	; 0
    2f14:	30 e0       	ldi	r19, 0x00	; 0
    2f16:	40 e0       	ldi	r20, 0x00	; 0
    2f18:	5f e3       	ldi	r21, 0x3F	; 63
    2f1a:	69 81       	ldd	r22, Y+1	; 0x01
    2f1c:	7a 81       	ldd	r23, Y+2	; 0x02
    2f1e:	8b 81       	ldd	r24, Y+3	; 0x03
    2f20:	9c 81       	ldd	r25, Y+4	; 0x04
    2f22:	d6 d3       	rcall	.+1964   	; 0x36d0 <__mulsf3>
    2f24:	a7 01       	movw	r20, r14
    2f26:	96 01       	movw	r18, r12
    2f28:	d3 d3       	rcall	.+1958   	; 0x36d0 <__mulsf3>
    2f2a:	96 2e       	mov	r9, r22
    2f2c:	87 2e       	mov	r8, r23
    2f2e:	78 2e       	mov	r7, r24
    2f30:	69 2e       	mov	r6, r25
    2f32:	a4 01       	movw	r20, r8
    2f34:	93 01       	movw	r18, r6
    2f36:	85 2f       	mov	r24, r21
    2f38:	94 2f       	mov	r25, r20
    2f3a:	a3 2f       	mov	r26, r19
    2f3c:	b2 2f       	mov	r27, r18
    2f3e:	89 83       	std	Y+1, r24	; 0x01
    2f40:	9a 83       	std	Y+2, r25	; 0x02
    2f42:	ab 83       	std	Y+3, r26	; 0x03
    2f44:	bc 83       	std	Y+4, r27	; 0x04
    2f46:	20 e0       	ldi	r18, 0x00	; 0
    2f48:	30 e0       	ldi	r19, 0x00	; 0
    2f4a:	40 e0       	ldi	r20, 0x00	; 0
    2f4c:	5f e3       	ldi	r21, 0x3F	; 63
    2f4e:	6d 81       	ldd	r22, Y+5	; 0x05
    2f50:	7e 81       	ldd	r23, Y+6	; 0x06
    2f52:	8f 81       	ldd	r24, Y+7	; 0x07
    2f54:	98 85       	ldd	r25, Y+8	; 0x08
    2f56:	bc d3       	rcall	.+1912   	; 0x36d0 <__mulsf3>
    2f58:	a7 01       	movw	r20, r14
    2f5a:	96 01       	movw	r18, r12
    2f5c:	b9 d3       	rcall	.+1906   	; 0x36d0 <__mulsf3>
    2f5e:	56 2e       	mov	r5, r22
    2f60:	47 2e       	mov	r4, r23
    2f62:	38 2e       	mov	r3, r24
    2f64:	29 2e       	mov	r2, r25
    2f66:	a2 01       	movw	r20, r4
    2f68:	91 01       	movw	r18, r2
    2f6a:	85 2f       	mov	r24, r21
    2f6c:	94 2f       	mov	r25, r20
    2f6e:	a3 2f       	mov	r26, r19
    2f70:	b2 2f       	mov	r27, r18
    2f72:	8d 83       	std	Y+5, r24	; 0x05
    2f74:	9e 83       	std	Y+6, r25	; 0x06
    2f76:	af 83       	std	Y+7, r26	; 0x07
    2f78:	b8 87       	std	Y+8, r27	; 0x08
    2f7a:	b4 01       	movw	r22, r8
    2f7c:	c3 01       	movw	r24, r6
    2f7e:	27 2f       	mov	r18, r23
    2f80:	36 2f       	mov	r19, r22
    2f82:	49 2f       	mov	r20, r25
    2f84:	58 2f       	mov	r21, r24
    2f86:	bd 8d       	ldd	r27, Y+29	; 0x1d
    2f88:	ae 8d       	ldd	r26, Y+30	; 0x1e
    2f8a:	ff 8d       	ldd	r31, Y+31	; 0x1f
    2f8c:	e8 a1       	ldd	r30, Y+32	; 0x20
    2f8e:	6b 2f       	mov	r22, r27
    2f90:	7a 2f       	mov	r23, r26
    2f92:	8f 2f       	mov	r24, r31
    2f94:	9e 2f       	mov	r25, r30
    2f96:	1a d1       	rcall	.+564    	; 0x31cc <__subsf3>
    2f98:	5b 01       	movw	r10, r22
    2f9a:	6c 01       	movw	r12, r24
    2f9c:	b2 01       	movw	r22, r4
    2f9e:	c1 01       	movw	r24, r2
    2fa0:	27 2f       	mov	r18, r23
    2fa2:	36 2f       	mov	r19, r22
    2fa4:	49 2f       	mov	r20, r25
    2fa6:	58 2f       	mov	r21, r24
    2fa8:	b9 a1       	ldd	r27, Y+33	; 0x21
    2faa:	aa a1       	ldd	r26, Y+34	; 0x22
    2fac:	fb a1       	ldd	r31, Y+35	; 0x23
    2fae:	ec a1       	ldd	r30, Y+36	; 0x24
    2fb0:	6b 2f       	mov	r22, r27
    2fb2:	7a 2f       	mov	r23, r26
    2fb4:	8f 2f       	mov	r24, r31
    2fb6:	9e 2f       	mov	r25, r30
    2fb8:	09 d1       	rcall	.+530    	; 0x31cc <__subsf3>
    2fba:	7b 01       	movw	r14, r22
    2fbc:	8c 01       	movw	r16, r24
    2fbe:	1f 93       	push	r17
    2fc0:	8f 93       	push	r24
    2fc2:	ff 92       	push	r15
    2fc4:	6f 93       	push	r22
    2fc6:	df 92       	push	r13
    2fc8:	cf 92       	push	r12
    2fca:	bf 92       	push	r11
    2fcc:	af 92       	push	r10
    2fce:	2f 92       	push	r2
    2fd0:	3f 92       	push	r3
    2fd2:	4f 92       	push	r4
    2fd4:	5f 92       	push	r5
    2fd6:	6f 92       	push	r6
    2fd8:	7f 92       	push	r7
    2fda:	8f 92       	push	r8
    2fdc:	9f 92       	push	r9
    2fde:	8c a1       	ldd	r24, Y+36	; 0x24
    2fe0:	8f 93       	push	r24
    2fe2:	9b a1       	ldd	r25, Y+35	; 0x23
    2fe4:	9f 93       	push	r25
    2fe6:	8a a1       	ldd	r24, Y+34	; 0x22
    2fe8:	8f 93       	push	r24
    2fea:	99 a1       	ldd	r25, Y+33	; 0x21
    2fec:	9f 93       	push	r25
    2fee:	88 a1       	ldd	r24, Y+32	; 0x20
    2ff0:	8f 93       	push	r24
    2ff2:	9f 8d       	ldd	r25, Y+31	; 0x1f
    2ff4:	9f 93       	push	r25
    2ff6:	8e 8d       	ldd	r24, Y+30	; 0x1e
    2ff8:	8f 93       	push	r24
    2ffa:	9d 8d       	ldd	r25, Y+29	; 0x1d
    2ffc:	9f 93       	push	r25
    2ffe:	8c 8d       	ldd	r24, Y+28	; 0x1c
    3000:	8f 93       	push	r24
    3002:	9b 8d       	ldd	r25, Y+27	; 0x1b
    3004:	9f 93       	push	r25
    3006:	8a 8d       	ldd	r24, Y+26	; 0x1a
    3008:	8f 93       	push	r24
    300a:	99 8d       	ldd	r25, Y+25	; 0x19
    300c:	9f 93       	push	r25
    300e:	80 e8       	ldi	r24, 0x80	; 128
    3010:	95 e1       	ldi	r25, 0x15	; 21
    3012:	9f 93       	push	r25
    3014:	8f 93       	push	r24
    3016:	84 e0       	ldi	r24, 0x04	; 4
    3018:	8f 93       	push	r24
    301a:	0e 94 ea 03 	call	0x7d4	; 0x7d4 <SendTrace>
    301e:	20 91 4d 16 	lds	r18, 0x164D
    3022:	30 91 4e 16 	lds	r19, 0x164E
    3026:	40 91 4f 16 	lds	r20, 0x164F
    302a:	50 91 50 16 	lds	r21, 0x1650
    302e:	6a 2d       	mov	r22, r10
    3030:	7b 2d       	mov	r23, r11
    3032:	8c 2d       	mov	r24, r12
    3034:	9d 2d       	mov	r25, r13
    3036:	cb d0       	rcall	.+406    	; 0x31ce <__addsf3>
    3038:	2e 2d       	mov	r18, r14
    303a:	3f 2d       	mov	r19, r15
    303c:	40 2f       	mov	r20, r16
    303e:	51 2f       	mov	r21, r17
    3040:	c5 d0       	rcall	.+394    	; 0x31cc <__subsf3>
    3042:	8b d0       	rcall	.+278    	; 0x315a <RoundLong>
    3044:	80 e0       	ldi	r24, 0x00	; 0
    3046:	0e 94 f4 04 	call	0x9e8	; 0x9e8 <PWMChangePulseDuration>
    304a:	20 91 4d 16 	lds	r18, 0x164D
    304e:	30 91 4e 16 	lds	r19, 0x164E
    3052:	40 91 4f 16 	lds	r20, 0x164F
    3056:	50 91 50 16 	lds	r21, 0x1650
    305a:	6a 2d       	mov	r22, r10
    305c:	7b 2d       	mov	r23, r11
    305e:	8c 2d       	mov	r24, r12
    3060:	9d 2d       	mov	r25, r13
    3062:	b5 d0       	rcall	.+362    	; 0x31ce <__addsf3>
    3064:	2e 2d       	mov	r18, r14
    3066:	3f 2d       	mov	r19, r15
    3068:	40 2f       	mov	r20, r16
    306a:	51 2f       	mov	r21, r17
    306c:	b0 d0       	rcall	.+352    	; 0x31ce <__addsf3>
    306e:	75 d0       	rcall	.+234    	; 0x315a <RoundLong>
    3070:	81 e0       	ldi	r24, 0x01	; 1
    3072:	0e 94 f4 04 	call	0x9e8	; 0x9e8 <PWMChangePulseDuration>
    3076:	2a 2d       	mov	r18, r10
    3078:	3b 2d       	mov	r19, r11
    307a:	4c 2d       	mov	r20, r12
    307c:	5d 2d       	mov	r21, r13
    307e:	60 91 4d 16 	lds	r22, 0x164D
    3082:	70 91 4e 16 	lds	r23, 0x164E
    3086:	80 91 4f 16 	lds	r24, 0x164F
    308a:	90 91 50 16 	lds	r25, 0x1650
    308e:	9e d0       	rcall	.+316    	; 0x31cc <__subsf3>
    3090:	2e 2d       	mov	r18, r14
    3092:	3f 2d       	mov	r19, r15
    3094:	40 2f       	mov	r20, r16
    3096:	51 2f       	mov	r21, r17
    3098:	99 d0       	rcall	.+306    	; 0x31cc <__subsf3>
    309a:	5f d0       	rcall	.+190    	; 0x315a <RoundLong>
    309c:	82 e0       	ldi	r24, 0x02	; 2
    309e:	0e 94 f4 04 	call	0x9e8	; 0x9e8 <PWMChangePulseDuration>
    30a2:	2a 2d       	mov	r18, r10
    30a4:	3b 2d       	mov	r19, r11
    30a6:	4c 2d       	mov	r20, r12
    30a8:	5d 2d       	mov	r21, r13
    30aa:	60 91 4d 16 	lds	r22, 0x164D
    30ae:	70 91 4e 16 	lds	r23, 0x164E
    30b2:	80 91 4f 16 	lds	r24, 0x164F
    30b6:	90 91 50 16 	lds	r25, 0x1650
    30ba:	88 d0       	rcall	.+272    	; 0x31cc <__subsf3>
    30bc:	2e 2d       	mov	r18, r14
    30be:	3f 2d       	mov	r19, r15
    30c0:	40 2f       	mov	r20, r16
    30c2:	51 2f       	mov	r21, r17
    30c4:	84 d0       	rcall	.+264    	; 0x31ce <__addsf3>
    30c6:	49 d0       	rcall	.+146    	; 0x315a <RoundLong>
    30c8:	83 e0       	ldi	r24, 0x03	; 3
    30ca:	0e 94 f4 04 	call	0x9e8	; 0x9e8 <PWMChangePulseDuration>
    30ce:	0f b6       	in	r0, 0x3f	; 63
    30d0:	f8 94       	cli
    30d2:	de bf       	out	0x3e, r29	; 62
    30d4:	0f be       	out	0x3f, r0	; 63
    30d6:	cd bf       	out	0x3d, r28	; 61
    30d8:	a4 96       	adiw	r28, 0x24	; 36
    30da:	0f b6       	in	r0, 0x3f	; 63
    30dc:	f8 94       	cli
    30de:	de bf       	out	0x3e, r29	; 62
    30e0:	0f be       	out	0x3f, r0	; 63
    30e2:	cd bf       	out	0x3d, r28	; 61
    30e4:	df 91       	pop	r29
    30e6:	cf 91       	pop	r28
    30e8:	1f 91       	pop	r17
    30ea:	0f 91       	pop	r16
    30ec:	ff 90       	pop	r15
    30ee:	ef 90       	pop	r14
    30f0:	df 90       	pop	r13
    30f2:	cf 90       	pop	r12
    30f4:	bf 90       	pop	r11
    30f6:	af 90       	pop	r10
    30f8:	9f 90       	pop	r9
    30fa:	8f 90       	pop	r8
    30fc:	7f 90       	pop	r7
    30fe:	6f 90       	pop	r6
    3100:	5f 90       	pop	r5
    3102:	4f 90       	pop	r4
    3104:	3f 90       	pop	r3
    3106:	2f 90       	pop	r2
    3108:	08 95       	ret

0000310a <PerformEmergencyLanding>:
    310a:	60 91 4d 16 	lds	r22, 0x164D
    310e:	70 91 4e 16 	lds	r23, 0x164E
    3112:	80 91 4f 16 	lds	r24, 0x164F
    3116:	90 91 50 16 	lds	r25, 0x1650
    311a:	93 d1       	rcall	.+806    	; 0x3442 <__fixunssfsi>
    311c:	c6 2f       	mov	r28, r22
    311e:	cc 23       	and	r28, r28
    3120:	d9 f0       	breq	.+54     	; 0x3158 <PerformEmergencyLanding+0x4e>
    3122:	6c 2f       	mov	r22, r28
    3124:	80 e0       	ldi	r24, 0x00	; 0
    3126:	0e 94 f4 04 	call	0x9e8	; 0x9e8 <PWMChangePulseDuration>
    312a:	6c 2f       	mov	r22, r28
    312c:	81 e0       	ldi	r24, 0x01	; 1
    312e:	0e 94 f4 04 	call	0x9e8	; 0x9e8 <PWMChangePulseDuration>
    3132:	6c 2f       	mov	r22, r28
    3134:	82 e0       	ldi	r24, 0x02	; 2
    3136:	0e 94 f4 04 	call	0x9e8	; 0x9e8 <PWMChangePulseDuration>
    313a:	6c 2f       	mov	r22, r28
    313c:	83 e0       	ldi	r24, 0x03	; 3
    313e:	0e 94 f4 04 	call	0x9e8	; 0x9e8 <PWMChangePulseDuration>
    3142:	2f ef       	ldi	r18, 0xFF	; 255
    3144:	80 e7       	ldi	r24, 0x70	; 112
    3146:	92 e0       	ldi	r25, 0x02	; 2
    3148:	21 50       	subi	r18, 0x01	; 1
    314a:	80 40       	sbci	r24, 0x00	; 0
    314c:	90 40       	sbci	r25, 0x00	; 0
    314e:	e1 f7       	brne	.-8      	; 0x3148 <PerformEmergencyLanding+0x3e>
    3150:	00 c0       	rjmp	.+0      	; 0x3152 <PerformEmergencyLanding+0x48>
    3152:	00 00       	nop
    3154:	c1 50       	subi	r28, 0x01	; 1
    3156:	e3 cf       	rjmp	.-58     	; 0x311e <PerformEmergencyLanding+0x14>
    3158:	ff cf       	rjmp	.-2      	; 0x3158 <PerformEmergencyLanding+0x4e>

0000315a <RoundLong>:
    315a:	af 92       	push	r10
    315c:	bf 92       	push	r11
    315e:	cf 92       	push	r12
    3160:	df 92       	push	r13
    3162:	ef 92       	push	r14
    3164:	ff 92       	push	r15
    3166:	0f 93       	push	r16
    3168:	1f 93       	push	r17
    316a:	5b 01       	movw	r10, r22
    316c:	6c 01       	movw	r12, r24
    316e:	64 d1       	rcall	.+712    	; 0x3438 <__fixsfsi>
    3170:	7b 01       	movw	r14, r22
    3172:	8c 01       	movw	r16, r24
    3174:	94 d1       	rcall	.+808    	; 0x349e <__floatsisf>
    3176:	9b 01       	movw	r18, r22
    3178:	ac 01       	movw	r20, r24
    317a:	c6 01       	movw	r24, r12
    317c:	b5 01       	movw	r22, r10
    317e:	26 d0       	rcall	.+76     	; 0x31cc <__subsf3>
    3180:	20 e0       	ldi	r18, 0x00	; 0
    3182:	30 e0       	ldi	r19, 0x00	; 0
    3184:	40 e0       	ldi	r20, 0x00	; 0
    3186:	5f e3       	ldi	r21, 0x3F	; 63
    3188:	e8 d0       	rcall	.+464    	; 0x335a <__cmpsf2>
    318a:	87 fd       	sbrc	r24, 7
    318c:	14 c0       	rjmp	.+40     	; 0x31b6 <RoundLong+0x5c>
    318e:	c6 01       	movw	r24, r12
    3190:	b5 01       	movw	r22, r10
    3192:	20 e0       	ldi	r18, 0x00	; 0
    3194:	30 e0       	ldi	r19, 0x00	; 0
    3196:	40 e0       	ldi	r20, 0x00	; 0
    3198:	50 e0       	ldi	r21, 0x00	; 0
    319a:	df d0       	rcall	.+446    	; 0x335a <__cmpsf2>
    319c:	88 23       	and	r24, r24
    319e:	34 f4       	brge	.+12     	; 0x31ac <RoundLong+0x52>
    31a0:	08 94       	sec
    31a2:	e1 08       	sbc	r14, r1
    31a4:	f1 08       	sbc	r15, r1
    31a6:	01 09       	sbc	r16, r1
    31a8:	11 09       	sbc	r17, r1
    31aa:	05 c0       	rjmp	.+10     	; 0x31b6 <RoundLong+0x5c>
    31ac:	08 94       	sec
    31ae:	e1 1c       	adc	r14, r1
    31b0:	f1 1c       	adc	r15, r1
    31b2:	01 1d       	adc	r16, r1
    31b4:	11 1d       	adc	r17, r1
    31b6:	b7 01       	movw	r22, r14
    31b8:	c8 01       	movw	r24, r16
    31ba:	1f 91       	pop	r17
    31bc:	0f 91       	pop	r16
    31be:	ff 90       	pop	r15
    31c0:	ef 90       	pop	r14
    31c2:	df 90       	pop	r13
    31c4:	cf 90       	pop	r12
    31c6:	bf 90       	pop	r11
    31c8:	af 90       	pop	r10
    31ca:	08 95       	ret

000031cc <__subsf3>:
    31cc:	50 58       	subi	r21, 0x80	; 128

000031ce <__addsf3>:
    31ce:	bb 27       	eor	r27, r27
    31d0:	aa 27       	eor	r26, r26
    31d2:	0e d0       	rcall	.+28     	; 0x31f0 <__addsf3x>
    31d4:	27 c2       	rjmp	.+1102   	; 0x3624 <__fp_round>
    31d6:	f0 d1       	rcall	.+992    	; 0x35b8 <__fp_pscA>
    31d8:	30 f0       	brcs	.+12     	; 0x31e6 <__addsf3+0x18>
    31da:	f5 d1       	rcall	.+1002   	; 0x35c6 <__fp_pscB>
    31dc:	20 f0       	brcs	.+8      	; 0x31e6 <__addsf3+0x18>
    31de:	31 f4       	brne	.+12     	; 0x31ec <__addsf3+0x1e>
    31e0:	9f 3f       	cpi	r25, 0xFF	; 255
    31e2:	11 f4       	brne	.+4      	; 0x31e8 <__addsf3+0x1a>
    31e4:	1e f4       	brtc	.+6      	; 0x31ec <__addsf3+0x1e>
    31e6:	c0 c1       	rjmp	.+896    	; 0x3568 <__fp_nan>
    31e8:	0e f4       	brtc	.+2      	; 0x31ec <__addsf3+0x1e>
    31ea:	e0 95       	com	r30
    31ec:	e7 fb       	bst	r30, 7
    31ee:	b6 c1       	rjmp	.+876    	; 0x355c <__fp_inf>

000031f0 <__addsf3x>:
    31f0:	e9 2f       	mov	r30, r25
    31f2:	3a d2       	rcall	.+1140   	; 0x3668 <__fp_split3>
    31f4:	80 f3       	brcs	.-32     	; 0x31d6 <__addsf3+0x8>
    31f6:	ba 17       	cp	r27, r26
    31f8:	62 07       	cpc	r22, r18
    31fa:	73 07       	cpc	r23, r19
    31fc:	84 07       	cpc	r24, r20
    31fe:	95 07       	cpc	r25, r21
    3200:	18 f0       	brcs	.+6      	; 0x3208 <__addsf3x+0x18>
    3202:	71 f4       	brne	.+28     	; 0x3220 <__addsf3x+0x30>
    3204:	9e f5       	brtc	.+102    	; 0x326c <__addsf3x+0x7c>
    3206:	52 c2       	rjmp	.+1188   	; 0x36ac <__fp_zero>
    3208:	0e f4       	brtc	.+2      	; 0x320c <__addsf3x+0x1c>
    320a:	e0 95       	com	r30
    320c:	0b 2e       	mov	r0, r27
    320e:	ba 2f       	mov	r27, r26
    3210:	a0 2d       	mov	r26, r0
    3212:	0b 01       	movw	r0, r22
    3214:	b9 01       	movw	r22, r18
    3216:	90 01       	movw	r18, r0
    3218:	0c 01       	movw	r0, r24
    321a:	ca 01       	movw	r24, r20
    321c:	a0 01       	movw	r20, r0
    321e:	11 24       	eor	r1, r1
    3220:	ff 27       	eor	r31, r31
    3222:	59 1b       	sub	r21, r25
    3224:	99 f0       	breq	.+38     	; 0x324c <__addsf3x+0x5c>
    3226:	59 3f       	cpi	r21, 0xF9	; 249
    3228:	50 f4       	brcc	.+20     	; 0x323e <__addsf3x+0x4e>
    322a:	50 3e       	cpi	r21, 0xE0	; 224
    322c:	68 f1       	brcs	.+90     	; 0x3288 <__addsf3x+0x98>
    322e:	1a 16       	cp	r1, r26
    3230:	f0 40       	sbci	r31, 0x00	; 0
    3232:	a2 2f       	mov	r26, r18
    3234:	23 2f       	mov	r18, r19
    3236:	34 2f       	mov	r19, r20
    3238:	44 27       	eor	r20, r20
    323a:	58 5f       	subi	r21, 0xF8	; 248
    323c:	f3 cf       	rjmp	.-26     	; 0x3224 <__addsf3x+0x34>
    323e:	46 95       	lsr	r20
    3240:	37 95       	ror	r19
    3242:	27 95       	ror	r18
    3244:	a7 95       	ror	r26
    3246:	f0 40       	sbci	r31, 0x00	; 0
    3248:	53 95       	inc	r21
    324a:	c9 f7       	brne	.-14     	; 0x323e <__addsf3x+0x4e>
    324c:	7e f4       	brtc	.+30     	; 0x326c <__addsf3x+0x7c>
    324e:	1f 16       	cp	r1, r31
    3250:	ba 0b       	sbc	r27, r26
    3252:	62 0b       	sbc	r22, r18
    3254:	73 0b       	sbc	r23, r19
    3256:	84 0b       	sbc	r24, r20
    3258:	ba f0       	brmi	.+46     	; 0x3288 <__addsf3x+0x98>
    325a:	91 50       	subi	r25, 0x01	; 1
    325c:	a1 f0       	breq	.+40     	; 0x3286 <__addsf3x+0x96>
    325e:	ff 0f       	add	r31, r31
    3260:	bb 1f       	adc	r27, r27
    3262:	66 1f       	adc	r22, r22
    3264:	77 1f       	adc	r23, r23
    3266:	88 1f       	adc	r24, r24
    3268:	c2 f7       	brpl	.-16     	; 0x325a <__addsf3x+0x6a>
    326a:	0e c0       	rjmp	.+28     	; 0x3288 <__addsf3x+0x98>
    326c:	ba 0f       	add	r27, r26
    326e:	62 1f       	adc	r22, r18
    3270:	73 1f       	adc	r23, r19
    3272:	84 1f       	adc	r24, r20
    3274:	48 f4       	brcc	.+18     	; 0x3288 <__addsf3x+0x98>
    3276:	87 95       	ror	r24
    3278:	77 95       	ror	r23
    327a:	67 95       	ror	r22
    327c:	b7 95       	ror	r27
    327e:	f7 95       	ror	r31
    3280:	9e 3f       	cpi	r25, 0xFE	; 254
    3282:	08 f0       	brcs	.+2      	; 0x3286 <__addsf3x+0x96>
    3284:	b3 cf       	rjmp	.-154    	; 0x31ec <__addsf3+0x1e>
    3286:	93 95       	inc	r25
    3288:	88 0f       	add	r24, r24
    328a:	08 f0       	brcs	.+2      	; 0x328e <__addsf3x+0x9e>
    328c:	99 27       	eor	r25, r25
    328e:	ee 0f       	add	r30, r30
    3290:	97 95       	ror	r25
    3292:	87 95       	ror	r24
    3294:	08 95       	ret
    3296:	90 d1       	rcall	.+800    	; 0x35b8 <__fp_pscA>
    3298:	58 f0       	brcs	.+22     	; 0x32b0 <__addsf3x+0xc0>
    329a:	80 e8       	ldi	r24, 0x80	; 128
    329c:	91 e0       	ldi	r25, 0x01	; 1
    329e:	09 f4       	brne	.+2      	; 0x32a2 <__addsf3x+0xb2>
    32a0:	9e ef       	ldi	r25, 0xFE	; 254
    32a2:	91 d1       	rcall	.+802    	; 0x35c6 <__fp_pscB>
    32a4:	28 f0       	brcs	.+10     	; 0x32b0 <__addsf3x+0xc0>
    32a6:	40 e8       	ldi	r20, 0x80	; 128
    32a8:	51 e0       	ldi	r21, 0x01	; 1
    32aa:	59 f4       	brne	.+22     	; 0x32c2 <atan2+0xe>
    32ac:	5e ef       	ldi	r21, 0xFE	; 254
    32ae:	09 c0       	rjmp	.+18     	; 0x32c2 <atan2+0xe>
    32b0:	5b c1       	rjmp	.+694    	; 0x3568 <__fp_nan>
    32b2:	fc c1       	rjmp	.+1016   	; 0x36ac <__fp_zero>

000032b4 <atan2>:
    32b4:	e9 2f       	mov	r30, r25
    32b6:	e0 78       	andi	r30, 0x80	; 128
    32b8:	d7 d1       	rcall	.+942    	; 0x3668 <__fp_split3>
    32ba:	68 f3       	brcs	.-38     	; 0x3296 <__addsf3x+0xa6>
    32bc:	09 2e       	mov	r0, r25
    32be:	05 2a       	or	r0, r21
    32c0:	c1 f3       	breq	.-16     	; 0x32b2 <__addsf3x+0xc2>
    32c2:	26 17       	cp	r18, r22
    32c4:	37 07       	cpc	r19, r23
    32c6:	48 07       	cpc	r20, r24
    32c8:	59 07       	cpc	r21, r25
    32ca:	38 f0       	brcs	.+14     	; 0x32da <atan2+0x26>
    32cc:	0e 2e       	mov	r0, r30
    32ce:	07 f8       	bld	r0, 7
    32d0:	e0 25       	eor	r30, r0
    32d2:	69 f0       	breq	.+26     	; 0x32ee <atan2+0x3a>
    32d4:	e0 25       	eor	r30, r0
    32d6:	e0 64       	ori	r30, 0x40	; 64
    32d8:	0a c0       	rjmp	.+20     	; 0x32ee <atan2+0x3a>
    32da:	ef 63       	ori	r30, 0x3F	; 63
    32dc:	07 f8       	bld	r0, 7
    32de:	00 94       	com	r0
    32e0:	07 fa       	bst	r0, 7
    32e2:	db 01       	movw	r26, r22
    32e4:	b9 01       	movw	r22, r18
    32e6:	9d 01       	movw	r18, r26
    32e8:	dc 01       	movw	r26, r24
    32ea:	ca 01       	movw	r24, r20
    32ec:	ad 01       	movw	r20, r26
    32ee:	ef 93       	push	r30
    32f0:	4a d0       	rcall	.+148    	; 0x3386 <__divsf3_pse>
    32f2:	98 d1       	rcall	.+816    	; 0x3624 <__fp_round>
    32f4:	0a d0       	rcall	.+20     	; 0x330a <atan>
    32f6:	5f 91       	pop	r21
    32f8:	55 23       	and	r21, r21
    32fa:	31 f0       	breq	.+12     	; 0x3308 <atan2+0x54>
    32fc:	2b ed       	ldi	r18, 0xDB	; 219
    32fe:	3f e0       	ldi	r19, 0x0F	; 15
    3300:	49 e4       	ldi	r20, 0x49	; 73
    3302:	50 fd       	sbrc	r21, 0
    3304:	49 ec       	ldi	r20, 0xC9	; 201
    3306:	63 cf       	rjmp	.-314    	; 0x31ce <__addsf3>
    3308:	08 95       	ret

0000330a <atan>:
    330a:	df 93       	push	r29
    330c:	dd 27       	eor	r29, r29
    330e:	b9 2f       	mov	r27, r25
    3310:	bf 77       	andi	r27, 0x7F	; 127
    3312:	40 e8       	ldi	r20, 0x80	; 128
    3314:	5f e3       	ldi	r21, 0x3F	; 63
    3316:	16 16       	cp	r1, r22
    3318:	17 06       	cpc	r1, r23
    331a:	48 07       	cpc	r20, r24
    331c:	5b 07       	cpc	r21, r27
    331e:	10 f4       	brcc	.+4      	; 0x3324 <atan+0x1a>
    3320:	d9 2f       	mov	r29, r25
    3322:	cf d1       	rcall	.+926    	; 0x36c2 <inverse>
    3324:	9f 93       	push	r25
    3326:	8f 93       	push	r24
    3328:	7f 93       	push	r23
    332a:	6f 93       	push	r22
    332c:	7c d2       	rcall	.+1272   	; 0x3826 <square>
    332e:	ec e8       	ldi	r30, 0x8C	; 140
    3330:	f0 e0       	ldi	r31, 0x00	; 0
    3332:	1d d1       	rcall	.+570    	; 0x356e <__fp_powser>
    3334:	77 d1       	rcall	.+750    	; 0x3624 <__fp_round>
    3336:	2f 91       	pop	r18
    3338:	3f 91       	pop	r19
    333a:	4f 91       	pop	r20
    333c:	5f 91       	pop	r21
    333e:	d4 d1       	rcall	.+936    	; 0x36e8 <__mulsf3x>
    3340:	dd 23       	and	r29, r29
    3342:	49 f0       	breq	.+18     	; 0x3356 <atan+0x4c>
    3344:	90 58       	subi	r25, 0x80	; 128
    3346:	a2 ea       	ldi	r26, 0xA2	; 162
    3348:	2a ed       	ldi	r18, 0xDA	; 218
    334a:	3f e0       	ldi	r19, 0x0F	; 15
    334c:	49 ec       	ldi	r20, 0xC9	; 201
    334e:	5f e3       	ldi	r21, 0x3F	; 63
    3350:	d0 78       	andi	r29, 0x80	; 128
    3352:	5d 27       	eor	r21, r29
    3354:	4d df       	rcall	.-358    	; 0x31f0 <__addsf3x>
    3356:	df 91       	pop	r29
    3358:	65 c1       	rjmp	.+714    	; 0x3624 <__fp_round>

0000335a <__cmpsf2>:
    335a:	dc d0       	rcall	.+440    	; 0x3514 <__fp_cmp>
    335c:	08 f4       	brcc	.+2      	; 0x3360 <__cmpsf2+0x6>
    335e:	81 e0       	ldi	r24, 0x01	; 1
    3360:	08 95       	ret

00003362 <cos>:
    3362:	39 d1       	rcall	.+626    	; 0x35d6 <__fp_rempio2>
    3364:	e3 95       	inc	r30
    3366:	6f c1       	rjmp	.+734    	; 0x3646 <__fp_sinus>

00003368 <__divsf3>:
    3368:	0c d0       	rcall	.+24     	; 0x3382 <__divsf3x>
    336a:	5c c1       	rjmp	.+696    	; 0x3624 <__fp_round>
    336c:	2c d1       	rcall	.+600    	; 0x35c6 <__fp_pscB>
    336e:	40 f0       	brcs	.+16     	; 0x3380 <__divsf3+0x18>
    3370:	23 d1       	rcall	.+582    	; 0x35b8 <__fp_pscA>
    3372:	30 f0       	brcs	.+12     	; 0x3380 <__divsf3+0x18>
    3374:	21 f4       	brne	.+8      	; 0x337e <__divsf3+0x16>
    3376:	5f 3f       	cpi	r21, 0xFF	; 255
    3378:	19 f0       	breq	.+6      	; 0x3380 <__divsf3+0x18>
    337a:	f0 c0       	rjmp	.+480    	; 0x355c <__fp_inf>
    337c:	51 11       	cpse	r21, r1
    337e:	97 c1       	rjmp	.+814    	; 0x36ae <__fp_szero>
    3380:	f3 c0       	rjmp	.+486    	; 0x3568 <__fp_nan>

00003382 <__divsf3x>:
    3382:	72 d1       	rcall	.+740    	; 0x3668 <__fp_split3>
    3384:	98 f3       	brcs	.-26     	; 0x336c <__divsf3+0x4>

00003386 <__divsf3_pse>:
    3386:	99 23       	and	r25, r25
    3388:	c9 f3       	breq	.-14     	; 0x337c <__divsf3+0x14>
    338a:	55 23       	and	r21, r21
    338c:	b1 f3       	breq	.-20     	; 0x337a <__divsf3+0x12>
    338e:	95 1b       	sub	r25, r21
    3390:	55 0b       	sbc	r21, r21
    3392:	bb 27       	eor	r27, r27
    3394:	aa 27       	eor	r26, r26
    3396:	62 17       	cp	r22, r18
    3398:	73 07       	cpc	r23, r19
    339a:	84 07       	cpc	r24, r20
    339c:	38 f0       	brcs	.+14     	; 0x33ac <__divsf3_pse+0x26>
    339e:	9f 5f       	subi	r25, 0xFF	; 255
    33a0:	5f 4f       	sbci	r21, 0xFF	; 255
    33a2:	22 0f       	add	r18, r18
    33a4:	33 1f       	adc	r19, r19
    33a6:	44 1f       	adc	r20, r20
    33a8:	aa 1f       	adc	r26, r26
    33aa:	a9 f3       	breq	.-22     	; 0x3396 <__divsf3_pse+0x10>
    33ac:	33 d0       	rcall	.+102    	; 0x3414 <__divsf3_pse+0x8e>
    33ae:	0e 2e       	mov	r0, r30
    33b0:	3a f0       	brmi	.+14     	; 0x33c0 <__divsf3_pse+0x3a>
    33b2:	e0 e8       	ldi	r30, 0x80	; 128
    33b4:	30 d0       	rcall	.+96     	; 0x3416 <__divsf3_pse+0x90>
    33b6:	91 50       	subi	r25, 0x01	; 1
    33b8:	50 40       	sbci	r21, 0x00	; 0
    33ba:	e6 95       	lsr	r30
    33bc:	00 1c       	adc	r0, r0
    33be:	ca f7       	brpl	.-14     	; 0x33b2 <__divsf3_pse+0x2c>
    33c0:	29 d0       	rcall	.+82     	; 0x3414 <__divsf3_pse+0x8e>
    33c2:	fe 2f       	mov	r31, r30
    33c4:	27 d0       	rcall	.+78     	; 0x3414 <__divsf3_pse+0x8e>
    33c6:	66 0f       	add	r22, r22
    33c8:	77 1f       	adc	r23, r23
    33ca:	88 1f       	adc	r24, r24
    33cc:	bb 1f       	adc	r27, r27
    33ce:	26 17       	cp	r18, r22
    33d0:	37 07       	cpc	r19, r23
    33d2:	48 07       	cpc	r20, r24
    33d4:	ab 07       	cpc	r26, r27
    33d6:	b0 e8       	ldi	r27, 0x80	; 128
    33d8:	09 f0       	breq	.+2      	; 0x33dc <__divsf3_pse+0x56>
    33da:	bb 0b       	sbc	r27, r27
    33dc:	80 2d       	mov	r24, r0
    33de:	bf 01       	movw	r22, r30
    33e0:	ff 27       	eor	r31, r31
    33e2:	93 58       	subi	r25, 0x83	; 131
    33e4:	5f 4f       	sbci	r21, 0xFF	; 255
    33e6:	2a f0       	brmi	.+10     	; 0x33f2 <__divsf3_pse+0x6c>
    33e8:	9e 3f       	cpi	r25, 0xFE	; 254
    33ea:	51 05       	cpc	r21, r1
    33ec:	68 f0       	brcs	.+26     	; 0x3408 <__divsf3_pse+0x82>
    33ee:	b6 c0       	rjmp	.+364    	; 0x355c <__fp_inf>
    33f0:	5e c1       	rjmp	.+700    	; 0x36ae <__fp_szero>
    33f2:	5f 3f       	cpi	r21, 0xFF	; 255
    33f4:	ec f3       	brlt	.-6      	; 0x33f0 <__divsf3_pse+0x6a>
    33f6:	98 3e       	cpi	r25, 0xE8	; 232
    33f8:	dc f3       	brlt	.-10     	; 0x33f0 <__divsf3_pse+0x6a>
    33fa:	86 95       	lsr	r24
    33fc:	77 95       	ror	r23
    33fe:	67 95       	ror	r22
    3400:	b7 95       	ror	r27
    3402:	f7 95       	ror	r31
    3404:	9f 5f       	subi	r25, 0xFF	; 255
    3406:	c9 f7       	brne	.-14     	; 0x33fa <__divsf3_pse+0x74>
    3408:	88 0f       	add	r24, r24
    340a:	91 1d       	adc	r25, r1
    340c:	96 95       	lsr	r25
    340e:	87 95       	ror	r24
    3410:	97 f9       	bld	r25, 7
    3412:	08 95       	ret
    3414:	e1 e0       	ldi	r30, 0x01	; 1
    3416:	66 0f       	add	r22, r22
    3418:	77 1f       	adc	r23, r23
    341a:	88 1f       	adc	r24, r24
    341c:	bb 1f       	adc	r27, r27
    341e:	62 17       	cp	r22, r18
    3420:	73 07       	cpc	r23, r19
    3422:	84 07       	cpc	r24, r20
    3424:	ba 07       	cpc	r27, r26
    3426:	20 f0       	brcs	.+8      	; 0x3430 <__divsf3_pse+0xaa>
    3428:	62 1b       	sub	r22, r18
    342a:	73 0b       	sbc	r23, r19
    342c:	84 0b       	sbc	r24, r20
    342e:	ba 0b       	sbc	r27, r26
    3430:	ee 1f       	adc	r30, r30
    3432:	88 f7       	brcc	.-30     	; 0x3416 <__divsf3_pse+0x90>
    3434:	e0 95       	com	r30
    3436:	08 95       	ret

00003438 <__fixsfsi>:
    3438:	04 d0       	rcall	.+8      	; 0x3442 <__fixunssfsi>
    343a:	68 94       	set
    343c:	b1 11       	cpse	r27, r1
    343e:	37 c1       	rjmp	.+622    	; 0x36ae <__fp_szero>
    3440:	08 95       	ret

00003442 <__fixunssfsi>:
    3442:	1a d1       	rcall	.+564    	; 0x3678 <__fp_splitA>
    3444:	88 f0       	brcs	.+34     	; 0x3468 <__fixunssfsi+0x26>
    3446:	9f 57       	subi	r25, 0x7F	; 127
    3448:	90 f0       	brcs	.+36     	; 0x346e <__fixunssfsi+0x2c>
    344a:	b9 2f       	mov	r27, r25
    344c:	99 27       	eor	r25, r25
    344e:	b7 51       	subi	r27, 0x17	; 23
    3450:	a0 f0       	brcs	.+40     	; 0x347a <__fixunssfsi+0x38>
    3452:	d1 f0       	breq	.+52     	; 0x3488 <__fixunssfsi+0x46>
    3454:	66 0f       	add	r22, r22
    3456:	77 1f       	adc	r23, r23
    3458:	88 1f       	adc	r24, r24
    345a:	99 1f       	adc	r25, r25
    345c:	1a f0       	brmi	.+6      	; 0x3464 <__fixunssfsi+0x22>
    345e:	ba 95       	dec	r27
    3460:	c9 f7       	brne	.-14     	; 0x3454 <__fixunssfsi+0x12>
    3462:	12 c0       	rjmp	.+36     	; 0x3488 <__fixunssfsi+0x46>
    3464:	b1 30       	cpi	r27, 0x01	; 1
    3466:	81 f0       	breq	.+32     	; 0x3488 <__fixunssfsi+0x46>
    3468:	21 d1       	rcall	.+578    	; 0x36ac <__fp_zero>
    346a:	b1 e0       	ldi	r27, 0x01	; 1
    346c:	08 95       	ret
    346e:	1e c1       	rjmp	.+572    	; 0x36ac <__fp_zero>
    3470:	67 2f       	mov	r22, r23
    3472:	78 2f       	mov	r23, r24
    3474:	88 27       	eor	r24, r24
    3476:	b8 5f       	subi	r27, 0xF8	; 248
    3478:	39 f0       	breq	.+14     	; 0x3488 <__fixunssfsi+0x46>
    347a:	b9 3f       	cpi	r27, 0xF9	; 249
    347c:	cc f3       	brlt	.-14     	; 0x3470 <__fixunssfsi+0x2e>
    347e:	86 95       	lsr	r24
    3480:	77 95       	ror	r23
    3482:	67 95       	ror	r22
    3484:	b3 95       	inc	r27
    3486:	d9 f7       	brne	.-10     	; 0x347e <__fixunssfsi+0x3c>
    3488:	3e f4       	brtc	.+14     	; 0x3498 <__fixunssfsi+0x56>
    348a:	90 95       	com	r25
    348c:	80 95       	com	r24
    348e:	70 95       	com	r23
    3490:	61 95       	neg	r22
    3492:	7f 4f       	sbci	r23, 0xFF	; 255
    3494:	8f 4f       	sbci	r24, 0xFF	; 255
    3496:	9f 4f       	sbci	r25, 0xFF	; 255
    3498:	08 95       	ret

0000349a <__floatunsisf>:
    349a:	e8 94       	clt
    349c:	09 c0       	rjmp	.+18     	; 0x34b0 <__floatsisf+0x12>

0000349e <__floatsisf>:
    349e:	97 fb       	bst	r25, 7
    34a0:	3e f4       	brtc	.+14     	; 0x34b0 <__floatsisf+0x12>
    34a2:	90 95       	com	r25
    34a4:	80 95       	com	r24
    34a6:	70 95       	com	r23
    34a8:	61 95       	neg	r22
    34aa:	7f 4f       	sbci	r23, 0xFF	; 255
    34ac:	8f 4f       	sbci	r24, 0xFF	; 255
    34ae:	9f 4f       	sbci	r25, 0xFF	; 255
    34b0:	99 23       	and	r25, r25
    34b2:	a9 f0       	breq	.+42     	; 0x34de <__floatsisf+0x40>
    34b4:	f9 2f       	mov	r31, r25
    34b6:	96 e9       	ldi	r25, 0x96	; 150
    34b8:	bb 27       	eor	r27, r27
    34ba:	93 95       	inc	r25
    34bc:	f6 95       	lsr	r31
    34be:	87 95       	ror	r24
    34c0:	77 95       	ror	r23
    34c2:	67 95       	ror	r22
    34c4:	b7 95       	ror	r27
    34c6:	f1 11       	cpse	r31, r1
    34c8:	f8 cf       	rjmp	.-16     	; 0x34ba <__floatsisf+0x1c>
    34ca:	fa f4       	brpl	.+62     	; 0x350a <__floatsisf+0x6c>
    34cc:	bb 0f       	add	r27, r27
    34ce:	11 f4       	brne	.+4      	; 0x34d4 <__floatsisf+0x36>
    34d0:	60 ff       	sbrs	r22, 0
    34d2:	1b c0       	rjmp	.+54     	; 0x350a <__floatsisf+0x6c>
    34d4:	6f 5f       	subi	r22, 0xFF	; 255
    34d6:	7f 4f       	sbci	r23, 0xFF	; 255
    34d8:	8f 4f       	sbci	r24, 0xFF	; 255
    34da:	9f 4f       	sbci	r25, 0xFF	; 255
    34dc:	16 c0       	rjmp	.+44     	; 0x350a <__floatsisf+0x6c>
    34de:	88 23       	and	r24, r24
    34e0:	11 f0       	breq	.+4      	; 0x34e6 <__floatsisf+0x48>
    34e2:	96 e9       	ldi	r25, 0x96	; 150
    34e4:	11 c0       	rjmp	.+34     	; 0x3508 <__floatsisf+0x6a>
    34e6:	77 23       	and	r23, r23
    34e8:	21 f0       	breq	.+8      	; 0x34f2 <__floatsisf+0x54>
    34ea:	9e e8       	ldi	r25, 0x8E	; 142
    34ec:	87 2f       	mov	r24, r23
    34ee:	76 2f       	mov	r23, r22
    34f0:	05 c0       	rjmp	.+10     	; 0x34fc <__floatsisf+0x5e>
    34f2:	66 23       	and	r22, r22
    34f4:	71 f0       	breq	.+28     	; 0x3512 <__floatsisf+0x74>
    34f6:	96 e8       	ldi	r25, 0x86	; 134
    34f8:	86 2f       	mov	r24, r22
    34fa:	70 e0       	ldi	r23, 0x00	; 0
    34fc:	60 e0       	ldi	r22, 0x00	; 0
    34fe:	2a f0       	brmi	.+10     	; 0x350a <__floatsisf+0x6c>
    3500:	9a 95       	dec	r25
    3502:	66 0f       	add	r22, r22
    3504:	77 1f       	adc	r23, r23
    3506:	88 1f       	adc	r24, r24
    3508:	da f7       	brpl	.-10     	; 0x3500 <__floatsisf+0x62>
    350a:	88 0f       	add	r24, r24
    350c:	96 95       	lsr	r25
    350e:	87 95       	ror	r24
    3510:	97 f9       	bld	r25, 7
    3512:	08 95       	ret

00003514 <__fp_cmp>:
    3514:	99 0f       	add	r25, r25
    3516:	00 08       	sbc	r0, r0
    3518:	55 0f       	add	r21, r21
    351a:	aa 0b       	sbc	r26, r26
    351c:	e0 e8       	ldi	r30, 0x80	; 128
    351e:	fe ef       	ldi	r31, 0xFE	; 254
    3520:	16 16       	cp	r1, r22
    3522:	17 06       	cpc	r1, r23
    3524:	e8 07       	cpc	r30, r24
    3526:	f9 07       	cpc	r31, r25
    3528:	c0 f0       	brcs	.+48     	; 0x355a <__fp_cmp+0x46>
    352a:	12 16       	cp	r1, r18
    352c:	13 06       	cpc	r1, r19
    352e:	e4 07       	cpc	r30, r20
    3530:	f5 07       	cpc	r31, r21
    3532:	98 f0       	brcs	.+38     	; 0x355a <__fp_cmp+0x46>
    3534:	62 1b       	sub	r22, r18
    3536:	73 0b       	sbc	r23, r19
    3538:	84 0b       	sbc	r24, r20
    353a:	95 0b       	sbc	r25, r21
    353c:	39 f4       	brne	.+14     	; 0x354c <__fp_cmp+0x38>
    353e:	0a 26       	eor	r0, r26
    3540:	61 f0       	breq	.+24     	; 0x355a <__fp_cmp+0x46>
    3542:	23 2b       	or	r18, r19
    3544:	24 2b       	or	r18, r20
    3546:	25 2b       	or	r18, r21
    3548:	21 f4       	brne	.+8      	; 0x3552 <__fp_cmp+0x3e>
    354a:	08 95       	ret
    354c:	0a 26       	eor	r0, r26
    354e:	09 f4       	brne	.+2      	; 0x3552 <__fp_cmp+0x3e>
    3550:	a1 40       	sbci	r26, 0x01	; 1
    3552:	a6 95       	lsr	r26
    3554:	8f ef       	ldi	r24, 0xFF	; 255
    3556:	81 1d       	adc	r24, r1
    3558:	81 1d       	adc	r24, r1
    355a:	08 95       	ret

0000355c <__fp_inf>:
    355c:	97 f9       	bld	r25, 7
    355e:	9f 67       	ori	r25, 0x7F	; 127
    3560:	80 e8       	ldi	r24, 0x80	; 128
    3562:	70 e0       	ldi	r23, 0x00	; 0
    3564:	60 e0       	ldi	r22, 0x00	; 0
    3566:	08 95       	ret

00003568 <__fp_nan>:
    3568:	9f ef       	ldi	r25, 0xFF	; 255
    356a:	80 ec       	ldi	r24, 0xC0	; 192
    356c:	08 95       	ret

0000356e <__fp_powser>:
    356e:	df 93       	push	r29
    3570:	cf 93       	push	r28
    3572:	1f 93       	push	r17
    3574:	0f 93       	push	r16
    3576:	ff 92       	push	r15
    3578:	ef 92       	push	r14
    357a:	df 92       	push	r13
    357c:	7b 01       	movw	r14, r22
    357e:	8c 01       	movw	r16, r24
    3580:	68 94       	set
    3582:	05 c0       	rjmp	.+10     	; 0x358e <__fp_powser+0x20>
    3584:	da 2e       	mov	r13, r26
    3586:	ef 01       	movw	r28, r30
    3588:	af d0       	rcall	.+350    	; 0x36e8 <__mulsf3x>
    358a:	fe 01       	movw	r30, r28
    358c:	e8 94       	clt
    358e:	a5 91       	lpm	r26, Z+
    3590:	25 91       	lpm	r18, Z+
    3592:	35 91       	lpm	r19, Z+
    3594:	45 91       	lpm	r20, Z+
    3596:	55 91       	lpm	r21, Z+
    3598:	ae f3       	brts	.-22     	; 0x3584 <__fp_powser+0x16>
    359a:	ef 01       	movw	r28, r30
    359c:	29 de       	rcall	.-942    	; 0x31f0 <__addsf3x>
    359e:	fe 01       	movw	r30, r28
    35a0:	97 01       	movw	r18, r14
    35a2:	a8 01       	movw	r20, r16
    35a4:	da 94       	dec	r13
    35a6:	79 f7       	brne	.-34     	; 0x3586 <__fp_powser+0x18>
    35a8:	df 90       	pop	r13
    35aa:	ef 90       	pop	r14
    35ac:	ff 90       	pop	r15
    35ae:	0f 91       	pop	r16
    35b0:	1f 91       	pop	r17
    35b2:	cf 91       	pop	r28
    35b4:	df 91       	pop	r29
    35b6:	08 95       	ret

000035b8 <__fp_pscA>:
    35b8:	00 24       	eor	r0, r0
    35ba:	0a 94       	dec	r0
    35bc:	16 16       	cp	r1, r22
    35be:	17 06       	cpc	r1, r23
    35c0:	18 06       	cpc	r1, r24
    35c2:	09 06       	cpc	r0, r25
    35c4:	08 95       	ret

000035c6 <__fp_pscB>:
    35c6:	00 24       	eor	r0, r0
    35c8:	0a 94       	dec	r0
    35ca:	12 16       	cp	r1, r18
    35cc:	13 06       	cpc	r1, r19
    35ce:	14 06       	cpc	r1, r20
    35d0:	05 06       	cpc	r0, r21
    35d2:	08 95       	ret
    35d4:	c9 cf       	rjmp	.-110    	; 0x3568 <__fp_nan>

000035d6 <__fp_rempio2>:
    35d6:	50 d0       	rcall	.+160    	; 0x3678 <__fp_splitA>
    35d8:	e8 f3       	brcs	.-6      	; 0x35d4 <__fp_pscB+0xe>
    35da:	e8 94       	clt
    35dc:	e0 e0       	ldi	r30, 0x00	; 0
    35de:	bb 27       	eor	r27, r27
    35e0:	9f 57       	subi	r25, 0x7F	; 127
    35e2:	f0 f0       	brcs	.+60     	; 0x3620 <__fp_rempio2+0x4a>
    35e4:	2a ed       	ldi	r18, 0xDA	; 218
    35e6:	3f e0       	ldi	r19, 0x0F	; 15
    35e8:	49 ec       	ldi	r20, 0xC9	; 201
    35ea:	06 c0       	rjmp	.+12     	; 0x35f8 <__fp_rempio2+0x22>
    35ec:	ee 0f       	add	r30, r30
    35ee:	bb 0f       	add	r27, r27
    35f0:	66 1f       	adc	r22, r22
    35f2:	77 1f       	adc	r23, r23
    35f4:	88 1f       	adc	r24, r24
    35f6:	28 f0       	brcs	.+10     	; 0x3602 <__fp_rempio2+0x2c>
    35f8:	b2 3a       	cpi	r27, 0xA2	; 162
    35fa:	62 07       	cpc	r22, r18
    35fc:	73 07       	cpc	r23, r19
    35fe:	84 07       	cpc	r24, r20
    3600:	28 f0       	brcs	.+10     	; 0x360c <__fp_rempio2+0x36>
    3602:	b2 5a       	subi	r27, 0xA2	; 162
    3604:	62 0b       	sbc	r22, r18
    3606:	73 0b       	sbc	r23, r19
    3608:	84 0b       	sbc	r24, r20
    360a:	e3 95       	inc	r30
    360c:	9a 95       	dec	r25
    360e:	72 f7       	brpl	.-36     	; 0x35ec <__fp_rempio2+0x16>
    3610:	80 38       	cpi	r24, 0x80	; 128
    3612:	30 f4       	brcc	.+12     	; 0x3620 <__fp_rempio2+0x4a>
    3614:	9a 95       	dec	r25
    3616:	bb 0f       	add	r27, r27
    3618:	66 1f       	adc	r22, r22
    361a:	77 1f       	adc	r23, r23
    361c:	88 1f       	adc	r24, r24
    361e:	d2 f7       	brpl	.-12     	; 0x3614 <__fp_rempio2+0x3e>
    3620:	90 48       	sbci	r25, 0x80	; 128
    3622:	06 c1       	rjmp	.+524    	; 0x3830 <__fp_mpack_finite>

00003624 <__fp_round>:
    3624:	09 2e       	mov	r0, r25
    3626:	03 94       	inc	r0
    3628:	00 0c       	add	r0, r0
    362a:	11 f4       	brne	.+4      	; 0x3630 <__fp_round+0xc>
    362c:	88 23       	and	r24, r24
    362e:	52 f0       	brmi	.+20     	; 0x3644 <__fp_round+0x20>
    3630:	bb 0f       	add	r27, r27
    3632:	40 f4       	brcc	.+16     	; 0x3644 <__fp_round+0x20>
    3634:	bf 2b       	or	r27, r31
    3636:	11 f4       	brne	.+4      	; 0x363c <__fp_round+0x18>
    3638:	60 ff       	sbrs	r22, 0
    363a:	04 c0       	rjmp	.+8      	; 0x3644 <__fp_round+0x20>
    363c:	6f 5f       	subi	r22, 0xFF	; 255
    363e:	7f 4f       	sbci	r23, 0xFF	; 255
    3640:	8f 4f       	sbci	r24, 0xFF	; 255
    3642:	9f 4f       	sbci	r25, 0xFF	; 255
    3644:	08 95       	ret

00003646 <__fp_sinus>:
    3646:	ef 93       	push	r30
    3648:	e0 ff       	sbrs	r30, 0
    364a:	06 c0       	rjmp	.+12     	; 0x3658 <__fp_sinus+0x12>
    364c:	a2 ea       	ldi	r26, 0xA2	; 162
    364e:	2a ed       	ldi	r18, 0xDA	; 218
    3650:	3f e0       	ldi	r19, 0x0F	; 15
    3652:	49 ec       	ldi	r20, 0xC9	; 201
    3654:	5f eb       	ldi	r21, 0xBF	; 191
    3656:	cc dd       	rcall	.-1128   	; 0x31f0 <__addsf3x>
    3658:	e5 df       	rcall	.-54     	; 0x3624 <__fp_round>
    365a:	0f 90       	pop	r0
    365c:	03 94       	inc	r0
    365e:	01 fc       	sbrc	r0, 1
    3660:	90 58       	subi	r25, 0x80	; 128
    3662:	e9 eb       	ldi	r30, 0xB9	; 185
    3664:	f0 e0       	ldi	r31, 0x00	; 0
    3666:	f7 c0       	rjmp	.+494    	; 0x3856 <__fp_powsodd>

00003668 <__fp_split3>:
    3668:	57 fd       	sbrc	r21, 7
    366a:	90 58       	subi	r25, 0x80	; 128
    366c:	44 0f       	add	r20, r20
    366e:	55 1f       	adc	r21, r21
    3670:	59 f0       	breq	.+22     	; 0x3688 <__fp_splitA+0x10>
    3672:	5f 3f       	cpi	r21, 0xFF	; 255
    3674:	71 f0       	breq	.+28     	; 0x3692 <__fp_splitA+0x1a>
    3676:	47 95       	ror	r20

00003678 <__fp_splitA>:
    3678:	88 0f       	add	r24, r24
    367a:	97 fb       	bst	r25, 7
    367c:	99 1f       	adc	r25, r25
    367e:	61 f0       	breq	.+24     	; 0x3698 <__fp_splitA+0x20>
    3680:	9f 3f       	cpi	r25, 0xFF	; 255
    3682:	79 f0       	breq	.+30     	; 0x36a2 <__fp_splitA+0x2a>
    3684:	87 95       	ror	r24
    3686:	08 95       	ret
    3688:	12 16       	cp	r1, r18
    368a:	13 06       	cpc	r1, r19
    368c:	14 06       	cpc	r1, r20
    368e:	55 1f       	adc	r21, r21
    3690:	f2 cf       	rjmp	.-28     	; 0x3676 <__fp_split3+0xe>
    3692:	46 95       	lsr	r20
    3694:	f1 df       	rcall	.-30     	; 0x3678 <__fp_splitA>
    3696:	08 c0       	rjmp	.+16     	; 0x36a8 <__fp_splitA+0x30>
    3698:	16 16       	cp	r1, r22
    369a:	17 06       	cpc	r1, r23
    369c:	18 06       	cpc	r1, r24
    369e:	99 1f       	adc	r25, r25
    36a0:	f1 cf       	rjmp	.-30     	; 0x3684 <__fp_splitA+0xc>
    36a2:	86 95       	lsr	r24
    36a4:	71 05       	cpc	r23, r1
    36a6:	61 05       	cpc	r22, r1
    36a8:	08 94       	sec
    36aa:	08 95       	ret

000036ac <__fp_zero>:
    36ac:	e8 94       	clt

000036ae <__fp_szero>:
    36ae:	bb 27       	eor	r27, r27
    36b0:	66 27       	eor	r22, r22
    36b2:	77 27       	eor	r23, r23
    36b4:	cb 01       	movw	r24, r22
    36b6:	97 f9       	bld	r25, 7
    36b8:	08 95       	ret

000036ba <__gesf2>:
    36ba:	2c df       	rcall	.-424    	; 0x3514 <__fp_cmp>
    36bc:	08 f4       	brcc	.+2      	; 0x36c0 <__gesf2+0x6>
    36be:	8f ef       	ldi	r24, 0xFF	; 255
    36c0:	08 95       	ret

000036c2 <inverse>:
    36c2:	9b 01       	movw	r18, r22
    36c4:	ac 01       	movw	r20, r24
    36c6:	60 e0       	ldi	r22, 0x00	; 0
    36c8:	70 e0       	ldi	r23, 0x00	; 0
    36ca:	80 e8       	ldi	r24, 0x80	; 128
    36cc:	9f e3       	ldi	r25, 0x3F	; 63
    36ce:	4c ce       	rjmp	.-872    	; 0x3368 <__divsf3>

000036d0 <__mulsf3>:
    36d0:	0b d0       	rcall	.+22     	; 0x36e8 <__mulsf3x>
    36d2:	a8 cf       	rjmp	.-176    	; 0x3624 <__fp_round>
    36d4:	71 df       	rcall	.-286    	; 0x35b8 <__fp_pscA>
    36d6:	28 f0       	brcs	.+10     	; 0x36e2 <__mulsf3+0x12>
    36d8:	76 df       	rcall	.-276    	; 0x35c6 <__fp_pscB>
    36da:	18 f0       	brcs	.+6      	; 0x36e2 <__mulsf3+0x12>
    36dc:	95 23       	and	r25, r21
    36de:	09 f0       	breq	.+2      	; 0x36e2 <__mulsf3+0x12>
    36e0:	3d cf       	rjmp	.-390    	; 0x355c <__fp_inf>
    36e2:	42 cf       	rjmp	.-380    	; 0x3568 <__fp_nan>
    36e4:	11 24       	eor	r1, r1
    36e6:	e3 cf       	rjmp	.-58     	; 0x36ae <__fp_szero>

000036e8 <__mulsf3x>:
    36e8:	bf df       	rcall	.-130    	; 0x3668 <__fp_split3>
    36ea:	a0 f3       	brcs	.-24     	; 0x36d4 <__mulsf3+0x4>

000036ec <__mulsf3_pse>:
    36ec:	95 9f       	mul	r25, r21
    36ee:	d1 f3       	breq	.-12     	; 0x36e4 <__mulsf3+0x14>
    36f0:	95 0f       	add	r25, r21
    36f2:	50 e0       	ldi	r21, 0x00	; 0
    36f4:	55 1f       	adc	r21, r21
    36f6:	62 9f       	mul	r22, r18
    36f8:	f0 01       	movw	r30, r0
    36fa:	72 9f       	mul	r23, r18
    36fc:	bb 27       	eor	r27, r27
    36fe:	f0 0d       	add	r31, r0
    3700:	b1 1d       	adc	r27, r1
    3702:	63 9f       	mul	r22, r19
    3704:	aa 27       	eor	r26, r26
    3706:	f0 0d       	add	r31, r0
    3708:	b1 1d       	adc	r27, r1
    370a:	aa 1f       	adc	r26, r26
    370c:	64 9f       	mul	r22, r20
    370e:	66 27       	eor	r22, r22
    3710:	b0 0d       	add	r27, r0
    3712:	a1 1d       	adc	r26, r1
    3714:	66 1f       	adc	r22, r22
    3716:	82 9f       	mul	r24, r18
    3718:	22 27       	eor	r18, r18
    371a:	b0 0d       	add	r27, r0
    371c:	a1 1d       	adc	r26, r1
    371e:	62 1f       	adc	r22, r18
    3720:	73 9f       	mul	r23, r19
    3722:	b0 0d       	add	r27, r0
    3724:	a1 1d       	adc	r26, r1
    3726:	62 1f       	adc	r22, r18
    3728:	83 9f       	mul	r24, r19
    372a:	a0 0d       	add	r26, r0
    372c:	61 1d       	adc	r22, r1
    372e:	22 1f       	adc	r18, r18
    3730:	74 9f       	mul	r23, r20
    3732:	33 27       	eor	r19, r19
    3734:	a0 0d       	add	r26, r0
    3736:	61 1d       	adc	r22, r1
    3738:	23 1f       	adc	r18, r19
    373a:	84 9f       	mul	r24, r20
    373c:	60 0d       	add	r22, r0
    373e:	21 1d       	adc	r18, r1
    3740:	82 2f       	mov	r24, r18
    3742:	76 2f       	mov	r23, r22
    3744:	6a 2f       	mov	r22, r26
    3746:	11 24       	eor	r1, r1
    3748:	9f 57       	subi	r25, 0x7F	; 127
    374a:	50 40       	sbci	r21, 0x00	; 0
    374c:	8a f0       	brmi	.+34     	; 0x3770 <__mulsf3_pse+0x84>
    374e:	e1 f0       	breq	.+56     	; 0x3788 <__mulsf3_pse+0x9c>
    3750:	88 23       	and	r24, r24
    3752:	4a f0       	brmi	.+18     	; 0x3766 <__mulsf3_pse+0x7a>
    3754:	ee 0f       	add	r30, r30
    3756:	ff 1f       	adc	r31, r31
    3758:	bb 1f       	adc	r27, r27
    375a:	66 1f       	adc	r22, r22
    375c:	77 1f       	adc	r23, r23
    375e:	88 1f       	adc	r24, r24
    3760:	91 50       	subi	r25, 0x01	; 1
    3762:	50 40       	sbci	r21, 0x00	; 0
    3764:	a9 f7       	brne	.-22     	; 0x3750 <__mulsf3_pse+0x64>
    3766:	9e 3f       	cpi	r25, 0xFE	; 254
    3768:	51 05       	cpc	r21, r1
    376a:	70 f0       	brcs	.+28     	; 0x3788 <__mulsf3_pse+0x9c>
    376c:	f7 ce       	rjmp	.-530    	; 0x355c <__fp_inf>
    376e:	9f cf       	rjmp	.-194    	; 0x36ae <__fp_szero>
    3770:	5f 3f       	cpi	r21, 0xFF	; 255
    3772:	ec f3       	brlt	.-6      	; 0x376e <__mulsf3_pse+0x82>
    3774:	98 3e       	cpi	r25, 0xE8	; 232
    3776:	dc f3       	brlt	.-10     	; 0x376e <__mulsf3_pse+0x82>
    3778:	86 95       	lsr	r24
    377a:	77 95       	ror	r23
    377c:	67 95       	ror	r22
    377e:	b7 95       	ror	r27
    3780:	f7 95       	ror	r31
    3782:	e7 95       	ror	r30
    3784:	9f 5f       	subi	r25, 0xFF	; 255
    3786:	c1 f7       	brne	.-16     	; 0x3778 <__mulsf3_pse+0x8c>
    3788:	fe 2b       	or	r31, r30
    378a:	88 0f       	add	r24, r24
    378c:	91 1d       	adc	r25, r1
    378e:	96 95       	lsr	r25
    3790:	87 95       	ror	r24
    3792:	97 f9       	bld	r25, 7
    3794:	08 95       	ret

00003796 <sin>:
    3796:	9f 93       	push	r25
    3798:	1e df       	rcall	.-452    	; 0x35d6 <__fp_rempio2>
    379a:	0f 90       	pop	r0
    379c:	07 fc       	sbrc	r0, 7
    379e:	ee 5f       	subi	r30, 0xFE	; 254
    37a0:	52 cf       	rjmp	.-348    	; 0x3646 <__fp_sinus>
    37a2:	11 f4       	brne	.+4      	; 0x37a8 <sin+0x12>
    37a4:	0e f4       	brtc	.+2      	; 0x37a8 <sin+0x12>
    37a6:	e0 ce       	rjmp	.-576    	; 0x3568 <__fp_nan>
    37a8:	41 c0       	rjmp	.+130    	; 0x382c <__fp_mpack>

000037aa <sqrt>:
    37aa:	66 df       	rcall	.-308    	; 0x3678 <__fp_splitA>
    37ac:	d0 f3       	brcs	.-12     	; 0x37a2 <sin+0xc>
    37ae:	99 23       	and	r25, r25
    37b0:	d9 f3       	breq	.-10     	; 0x37a8 <sin+0x12>
    37b2:	ce f3       	brts	.-14     	; 0x37a6 <sin+0x10>
    37b4:	9f 57       	subi	r25, 0x7F	; 127
    37b6:	55 0b       	sbc	r21, r21
    37b8:	87 ff       	sbrs	r24, 7
    37ba:	46 d0       	rcall	.+140    	; 0x3848 <__fp_norm2>
    37bc:	00 24       	eor	r0, r0
    37be:	a0 e6       	ldi	r26, 0x60	; 96
    37c0:	40 ea       	ldi	r20, 0xA0	; 160
    37c2:	90 01       	movw	r18, r0
    37c4:	80 58       	subi	r24, 0x80	; 128
    37c6:	56 95       	lsr	r21
    37c8:	97 95       	ror	r25
    37ca:	28 f4       	brcc	.+10     	; 0x37d6 <sqrt+0x2c>
    37cc:	80 5c       	subi	r24, 0xC0	; 192
    37ce:	66 0f       	add	r22, r22
    37d0:	77 1f       	adc	r23, r23
    37d2:	88 1f       	adc	r24, r24
    37d4:	20 f0       	brcs	.+8      	; 0x37de <sqrt+0x34>
    37d6:	26 17       	cp	r18, r22
    37d8:	37 07       	cpc	r19, r23
    37da:	48 07       	cpc	r20, r24
    37dc:	30 f4       	brcc	.+12     	; 0x37ea <sqrt+0x40>
    37de:	62 1b       	sub	r22, r18
    37e0:	73 0b       	sbc	r23, r19
    37e2:	84 0b       	sbc	r24, r20
    37e4:	20 29       	or	r18, r0
    37e6:	31 29       	or	r19, r1
    37e8:	4a 2b       	or	r20, r26
    37ea:	a6 95       	lsr	r26
    37ec:	17 94       	ror	r1
    37ee:	07 94       	ror	r0
    37f0:	20 25       	eor	r18, r0
    37f2:	31 25       	eor	r19, r1
    37f4:	4a 27       	eor	r20, r26
    37f6:	58 f7       	brcc	.-42     	; 0x37ce <sqrt+0x24>
    37f8:	66 0f       	add	r22, r22
    37fa:	77 1f       	adc	r23, r23
    37fc:	88 1f       	adc	r24, r24
    37fe:	20 f0       	brcs	.+8      	; 0x3808 <sqrt+0x5e>
    3800:	26 17       	cp	r18, r22
    3802:	37 07       	cpc	r19, r23
    3804:	48 07       	cpc	r20, r24
    3806:	30 f4       	brcc	.+12     	; 0x3814 <sqrt+0x6a>
    3808:	62 0b       	sbc	r22, r18
    380a:	73 0b       	sbc	r23, r19
    380c:	84 0b       	sbc	r24, r20
    380e:	20 0d       	add	r18, r0
    3810:	31 1d       	adc	r19, r1
    3812:	41 1d       	adc	r20, r1
    3814:	a0 95       	com	r26
    3816:	81 f7       	brne	.-32     	; 0x37f8 <sqrt+0x4e>
    3818:	b9 01       	movw	r22, r18
    381a:	84 2f       	mov	r24, r20
    381c:	91 58       	subi	r25, 0x81	; 129
    381e:	88 0f       	add	r24, r24
    3820:	96 95       	lsr	r25
    3822:	87 95       	ror	r24
    3824:	08 95       	ret

00003826 <square>:
    3826:	9b 01       	movw	r18, r22
    3828:	ac 01       	movw	r20, r24
    382a:	52 cf       	rjmp	.-348    	; 0x36d0 <__mulsf3>

0000382c <__fp_mpack>:
    382c:	9f 3f       	cpi	r25, 0xFF	; 255
    382e:	31 f0       	breq	.+12     	; 0x383c <__fp_mpack_finite+0xc>

00003830 <__fp_mpack_finite>:
    3830:	91 50       	subi	r25, 0x01	; 1
    3832:	20 f4       	brcc	.+8      	; 0x383c <__fp_mpack_finite+0xc>
    3834:	87 95       	ror	r24
    3836:	77 95       	ror	r23
    3838:	67 95       	ror	r22
    383a:	b7 95       	ror	r27
    383c:	88 0f       	add	r24, r24
    383e:	91 1d       	adc	r25, r1
    3840:	96 95       	lsr	r25
    3842:	87 95       	ror	r24
    3844:	97 f9       	bld	r25, 7
    3846:	08 95       	ret

00003848 <__fp_norm2>:
    3848:	91 50       	subi	r25, 0x01	; 1
    384a:	50 40       	sbci	r21, 0x00	; 0
    384c:	66 0f       	add	r22, r22
    384e:	77 1f       	adc	r23, r23
    3850:	88 1f       	adc	r24, r24
    3852:	d2 f7       	brpl	.-12     	; 0x3848 <__fp_norm2>
    3854:	08 95       	ret

00003856 <__fp_powsodd>:
    3856:	9f 93       	push	r25
    3858:	8f 93       	push	r24
    385a:	7f 93       	push	r23
    385c:	6f 93       	push	r22
    385e:	ff 93       	push	r31
    3860:	ef 93       	push	r30
    3862:	9b 01       	movw	r18, r22
    3864:	ac 01       	movw	r20, r24
    3866:	34 df       	rcall	.-408    	; 0x36d0 <__mulsf3>
    3868:	ef 91       	pop	r30
    386a:	ff 91       	pop	r31
    386c:	80 de       	rcall	.-768    	; 0x356e <__fp_powser>
    386e:	2f 91       	pop	r18
    3870:	3f 91       	pop	r19
    3872:	4f 91       	pop	r20
    3874:	5f 91       	pop	r21
    3876:	2c cf       	rjmp	.-424    	; 0x36d0 <__mulsf3>

00003878 <malloc>:
    3878:	cf 93       	push	r28
    387a:	df 93       	push	r29
    387c:	82 30       	cpi	r24, 0x02	; 2
    387e:	91 05       	cpc	r25, r1
    3880:	10 f4       	brcc	.+4      	; 0x3886 <malloc+0xe>
    3882:	82 e0       	ldi	r24, 0x02	; 2
    3884:	90 e0       	ldi	r25, 0x00	; 0
    3886:	e0 91 53 16 	lds	r30, 0x1653
    388a:	f0 91 54 16 	lds	r31, 0x1654
    388e:	20 e0       	ldi	r18, 0x00	; 0
    3890:	30 e0       	ldi	r19, 0x00	; 0
    3892:	a0 e0       	ldi	r26, 0x00	; 0
    3894:	b0 e0       	ldi	r27, 0x00	; 0
    3896:	30 97       	sbiw	r30, 0x00	; 0
    3898:	39 f1       	breq	.+78     	; 0x38e8 <malloc+0x70>
    389a:	40 81       	ld	r20, Z
    389c:	51 81       	ldd	r21, Z+1	; 0x01
    389e:	48 17       	cp	r20, r24
    38a0:	59 07       	cpc	r21, r25
    38a2:	b8 f0       	brcs	.+46     	; 0x38d2 <malloc+0x5a>
    38a4:	48 17       	cp	r20, r24
    38a6:	59 07       	cpc	r21, r25
    38a8:	71 f4       	brne	.+28     	; 0x38c6 <malloc+0x4e>
    38aa:	82 81       	ldd	r24, Z+2	; 0x02
    38ac:	93 81       	ldd	r25, Z+3	; 0x03
    38ae:	10 97       	sbiw	r26, 0x00	; 0
    38b0:	29 f0       	breq	.+10     	; 0x38bc <malloc+0x44>
    38b2:	13 96       	adiw	r26, 0x03	; 3
    38b4:	9c 93       	st	X, r25
    38b6:	8e 93       	st	-X, r24
    38b8:	12 97       	sbiw	r26, 0x02	; 2
    38ba:	2c c0       	rjmp	.+88     	; 0x3914 <malloc+0x9c>
    38bc:	90 93 54 16 	sts	0x1654, r25
    38c0:	80 93 53 16 	sts	0x1653, r24
    38c4:	27 c0       	rjmp	.+78     	; 0x3914 <malloc+0x9c>
    38c6:	21 15       	cp	r18, r1
    38c8:	31 05       	cpc	r19, r1
    38ca:	31 f0       	breq	.+12     	; 0x38d8 <malloc+0x60>
    38cc:	42 17       	cp	r20, r18
    38ce:	53 07       	cpc	r21, r19
    38d0:	18 f0       	brcs	.+6      	; 0x38d8 <malloc+0x60>
    38d2:	a9 01       	movw	r20, r18
    38d4:	db 01       	movw	r26, r22
    38d6:	01 c0       	rjmp	.+2      	; 0x38da <malloc+0x62>
    38d8:	ef 01       	movw	r28, r30
    38da:	9a 01       	movw	r18, r20
    38dc:	bd 01       	movw	r22, r26
    38de:	df 01       	movw	r26, r30
    38e0:	02 80       	ldd	r0, Z+2	; 0x02
    38e2:	f3 81       	ldd	r31, Z+3	; 0x03
    38e4:	e0 2d       	mov	r30, r0
    38e6:	d7 cf       	rjmp	.-82     	; 0x3896 <malloc+0x1e>
    38e8:	21 15       	cp	r18, r1
    38ea:	31 05       	cpc	r19, r1
    38ec:	f9 f0       	breq	.+62     	; 0x392c <malloc+0xb4>
    38ee:	28 1b       	sub	r18, r24
    38f0:	39 0b       	sbc	r19, r25
    38f2:	24 30       	cpi	r18, 0x04	; 4
    38f4:	31 05       	cpc	r19, r1
    38f6:	80 f4       	brcc	.+32     	; 0x3918 <malloc+0xa0>
    38f8:	8a 81       	ldd	r24, Y+2	; 0x02
    38fa:	9b 81       	ldd	r25, Y+3	; 0x03
    38fc:	61 15       	cp	r22, r1
    38fe:	71 05       	cpc	r23, r1
    3900:	21 f0       	breq	.+8      	; 0x390a <malloc+0x92>
    3902:	fb 01       	movw	r30, r22
    3904:	93 83       	std	Z+3, r25	; 0x03
    3906:	82 83       	std	Z+2, r24	; 0x02
    3908:	04 c0       	rjmp	.+8      	; 0x3912 <malloc+0x9a>
    390a:	90 93 54 16 	sts	0x1654, r25
    390e:	80 93 53 16 	sts	0x1653, r24
    3912:	fe 01       	movw	r30, r28
    3914:	32 96       	adiw	r30, 0x02	; 2
    3916:	44 c0       	rjmp	.+136    	; 0x39a0 <malloc+0x128>
    3918:	fe 01       	movw	r30, r28
    391a:	e2 0f       	add	r30, r18
    391c:	f3 1f       	adc	r31, r19
    391e:	81 93       	st	Z+, r24
    3920:	91 93       	st	Z+, r25
    3922:	22 50       	subi	r18, 0x02	; 2
    3924:	31 09       	sbc	r19, r1
    3926:	39 83       	std	Y+1, r19	; 0x01
    3928:	28 83       	st	Y, r18
    392a:	3a c0       	rjmp	.+116    	; 0x39a0 <malloc+0x128>
    392c:	20 91 51 16 	lds	r18, 0x1651
    3930:	30 91 52 16 	lds	r19, 0x1652
    3934:	23 2b       	or	r18, r19
    3936:	41 f4       	brne	.+16     	; 0x3948 <malloc+0xd0>
    3938:	20 91 02 01 	lds	r18, 0x0102
    393c:	30 91 03 01 	lds	r19, 0x0103
    3940:	30 93 52 16 	sts	0x1652, r19
    3944:	20 93 51 16 	sts	0x1651, r18
    3948:	20 91 00 01 	lds	r18, 0x0100
    394c:	30 91 01 01 	lds	r19, 0x0101
    3950:	21 15       	cp	r18, r1
    3952:	31 05       	cpc	r19, r1
    3954:	41 f4       	brne	.+16     	; 0x3966 <malloc+0xee>
    3956:	2d b7       	in	r18, 0x3d	; 61
    3958:	3e b7       	in	r19, 0x3e	; 62
    395a:	40 91 04 01 	lds	r20, 0x0104
    395e:	50 91 05 01 	lds	r21, 0x0105
    3962:	24 1b       	sub	r18, r20
    3964:	35 0b       	sbc	r19, r21
    3966:	e0 91 51 16 	lds	r30, 0x1651
    396a:	f0 91 52 16 	lds	r31, 0x1652
    396e:	e2 17       	cp	r30, r18
    3970:	f3 07       	cpc	r31, r19
    3972:	a0 f4       	brcc	.+40     	; 0x399c <malloc+0x124>
    3974:	2e 1b       	sub	r18, r30
    3976:	3f 0b       	sbc	r19, r31
    3978:	28 17       	cp	r18, r24
    397a:	39 07       	cpc	r19, r25
    397c:	78 f0       	brcs	.+30     	; 0x399c <malloc+0x124>
    397e:	ac 01       	movw	r20, r24
    3980:	4e 5f       	subi	r20, 0xFE	; 254
    3982:	5f 4f       	sbci	r21, 0xFF	; 255
    3984:	24 17       	cp	r18, r20
    3986:	35 07       	cpc	r19, r21
    3988:	48 f0       	brcs	.+18     	; 0x399c <malloc+0x124>
    398a:	4e 0f       	add	r20, r30
    398c:	5f 1f       	adc	r21, r31
    398e:	50 93 52 16 	sts	0x1652, r21
    3992:	40 93 51 16 	sts	0x1651, r20
    3996:	81 93       	st	Z+, r24
    3998:	91 93       	st	Z+, r25
    399a:	02 c0       	rjmp	.+4      	; 0x39a0 <malloc+0x128>
    399c:	e0 e0       	ldi	r30, 0x00	; 0
    399e:	f0 e0       	ldi	r31, 0x00	; 0
    39a0:	cf 01       	movw	r24, r30
    39a2:	df 91       	pop	r29
    39a4:	cf 91       	pop	r28
    39a6:	08 95       	ret

000039a8 <free>:
    39a8:	cf 93       	push	r28
    39aa:	df 93       	push	r29
    39ac:	00 97       	sbiw	r24, 0x00	; 0
    39ae:	09 f4       	brne	.+2      	; 0x39b2 <free+0xa>
    39b0:	87 c0       	rjmp	.+270    	; 0x3ac0 <free+0x118>
    39b2:	fc 01       	movw	r30, r24
    39b4:	32 97       	sbiw	r30, 0x02	; 2
    39b6:	13 82       	std	Z+3, r1	; 0x03
    39b8:	12 82       	std	Z+2, r1	; 0x02
    39ba:	c0 91 53 16 	lds	r28, 0x1653
    39be:	d0 91 54 16 	lds	r29, 0x1654
    39c2:	20 97       	sbiw	r28, 0x00	; 0
    39c4:	81 f4       	brne	.+32     	; 0x39e6 <free+0x3e>
    39c6:	20 81       	ld	r18, Z
    39c8:	31 81       	ldd	r19, Z+1	; 0x01
    39ca:	28 0f       	add	r18, r24
    39cc:	39 1f       	adc	r19, r25
    39ce:	80 91 51 16 	lds	r24, 0x1651
    39d2:	90 91 52 16 	lds	r25, 0x1652
    39d6:	82 17       	cp	r24, r18
    39d8:	93 07       	cpc	r25, r19
    39da:	79 f5       	brne	.+94     	; 0x3a3a <free+0x92>
    39dc:	f0 93 52 16 	sts	0x1652, r31
    39e0:	e0 93 51 16 	sts	0x1651, r30
    39e4:	6d c0       	rjmp	.+218    	; 0x3ac0 <free+0x118>
    39e6:	de 01       	movw	r26, r28
    39e8:	20 e0       	ldi	r18, 0x00	; 0
    39ea:	30 e0       	ldi	r19, 0x00	; 0
    39ec:	ae 17       	cp	r26, r30
    39ee:	bf 07       	cpc	r27, r31
    39f0:	50 f4       	brcc	.+20     	; 0x3a06 <free+0x5e>
    39f2:	12 96       	adiw	r26, 0x02	; 2
    39f4:	4d 91       	ld	r20, X+
    39f6:	5c 91       	ld	r21, X
    39f8:	13 97       	sbiw	r26, 0x03	; 3
    39fa:	9d 01       	movw	r18, r26
    39fc:	41 15       	cp	r20, r1
    39fe:	51 05       	cpc	r21, r1
    3a00:	09 f1       	breq	.+66     	; 0x3a44 <free+0x9c>
    3a02:	da 01       	movw	r26, r20
    3a04:	f3 cf       	rjmp	.-26     	; 0x39ec <free+0x44>
    3a06:	b3 83       	std	Z+3, r27	; 0x03
    3a08:	a2 83       	std	Z+2, r26	; 0x02
    3a0a:	40 81       	ld	r20, Z
    3a0c:	51 81       	ldd	r21, Z+1	; 0x01
    3a0e:	84 0f       	add	r24, r20
    3a10:	95 1f       	adc	r25, r21
    3a12:	8a 17       	cp	r24, r26
    3a14:	9b 07       	cpc	r25, r27
    3a16:	71 f4       	brne	.+28     	; 0x3a34 <free+0x8c>
    3a18:	8d 91       	ld	r24, X+
    3a1a:	9c 91       	ld	r25, X
    3a1c:	11 97       	sbiw	r26, 0x01	; 1
    3a1e:	84 0f       	add	r24, r20
    3a20:	95 1f       	adc	r25, r21
    3a22:	02 96       	adiw	r24, 0x02	; 2
    3a24:	91 83       	std	Z+1, r25	; 0x01
    3a26:	80 83       	st	Z, r24
    3a28:	12 96       	adiw	r26, 0x02	; 2
    3a2a:	8d 91       	ld	r24, X+
    3a2c:	9c 91       	ld	r25, X
    3a2e:	13 97       	sbiw	r26, 0x03	; 3
    3a30:	93 83       	std	Z+3, r25	; 0x03
    3a32:	82 83       	std	Z+2, r24	; 0x02
    3a34:	21 15       	cp	r18, r1
    3a36:	31 05       	cpc	r19, r1
    3a38:	29 f4       	brne	.+10     	; 0x3a44 <free+0x9c>
    3a3a:	f0 93 54 16 	sts	0x1654, r31
    3a3e:	e0 93 53 16 	sts	0x1653, r30
    3a42:	3e c0       	rjmp	.+124    	; 0x3ac0 <free+0x118>
    3a44:	d9 01       	movw	r26, r18
    3a46:	13 96       	adiw	r26, 0x03	; 3
    3a48:	fc 93       	st	X, r31
    3a4a:	ee 93       	st	-X, r30
    3a4c:	12 97       	sbiw	r26, 0x02	; 2
    3a4e:	4d 91       	ld	r20, X+
    3a50:	5d 91       	ld	r21, X+
    3a52:	a4 0f       	add	r26, r20
    3a54:	b5 1f       	adc	r27, r21
    3a56:	ea 17       	cp	r30, r26
    3a58:	fb 07       	cpc	r31, r27
    3a5a:	79 f4       	brne	.+30     	; 0x3a7a <free+0xd2>
    3a5c:	80 81       	ld	r24, Z
    3a5e:	91 81       	ldd	r25, Z+1	; 0x01
    3a60:	84 0f       	add	r24, r20
    3a62:	95 1f       	adc	r25, r21
    3a64:	02 96       	adiw	r24, 0x02	; 2
    3a66:	d9 01       	movw	r26, r18
    3a68:	11 96       	adiw	r26, 0x01	; 1
    3a6a:	9c 93       	st	X, r25
    3a6c:	8e 93       	st	-X, r24
    3a6e:	82 81       	ldd	r24, Z+2	; 0x02
    3a70:	93 81       	ldd	r25, Z+3	; 0x03
    3a72:	13 96       	adiw	r26, 0x03	; 3
    3a74:	9c 93       	st	X, r25
    3a76:	8e 93       	st	-X, r24
    3a78:	12 97       	sbiw	r26, 0x02	; 2
    3a7a:	e0 e0       	ldi	r30, 0x00	; 0
    3a7c:	f0 e0       	ldi	r31, 0x00	; 0
    3a7e:	8a 81       	ldd	r24, Y+2	; 0x02
    3a80:	9b 81       	ldd	r25, Y+3	; 0x03
    3a82:	00 97       	sbiw	r24, 0x00	; 0
    3a84:	19 f0       	breq	.+6      	; 0x3a8c <free+0xe4>
    3a86:	fe 01       	movw	r30, r28
    3a88:	ec 01       	movw	r28, r24
    3a8a:	f9 cf       	rjmp	.-14     	; 0x3a7e <free+0xd6>
    3a8c:	ce 01       	movw	r24, r28
    3a8e:	02 96       	adiw	r24, 0x02	; 2
    3a90:	28 81       	ld	r18, Y
    3a92:	39 81       	ldd	r19, Y+1	; 0x01
    3a94:	82 0f       	add	r24, r18
    3a96:	93 1f       	adc	r25, r19
    3a98:	20 91 51 16 	lds	r18, 0x1651
    3a9c:	30 91 52 16 	lds	r19, 0x1652
    3aa0:	28 17       	cp	r18, r24
    3aa2:	39 07       	cpc	r19, r25
    3aa4:	69 f4       	brne	.+26     	; 0x3ac0 <free+0x118>
    3aa6:	30 97       	sbiw	r30, 0x00	; 0
    3aa8:	29 f4       	brne	.+10     	; 0x3ab4 <free+0x10c>
    3aaa:	10 92 54 16 	sts	0x1654, r1
    3aae:	10 92 53 16 	sts	0x1653, r1
    3ab2:	02 c0       	rjmp	.+4      	; 0x3ab8 <free+0x110>
    3ab4:	13 82       	std	Z+3, r1	; 0x03
    3ab6:	12 82       	std	Z+2, r1	; 0x02
    3ab8:	d0 93 52 16 	sts	0x1652, r29
    3abc:	c0 93 51 16 	sts	0x1651, r28
    3ac0:	df 91       	pop	r29
    3ac2:	cf 91       	pop	r28
    3ac4:	08 95       	ret

00003ac6 <memcpy>:
    3ac6:	fb 01       	movw	r30, r22
    3ac8:	dc 01       	movw	r26, r24
    3aca:	02 c0       	rjmp	.+4      	; 0x3ad0 <memcpy+0xa>
    3acc:	01 90       	ld	r0, Z+
    3ace:	0d 92       	st	X+, r0
    3ad0:	41 50       	subi	r20, 0x01	; 1
    3ad2:	50 40       	sbci	r21, 0x00	; 0
    3ad4:	d8 f7       	brcc	.-10     	; 0x3acc <memcpy+0x6>
    3ad6:	08 95       	ret

00003ad8 <_exit>:
    3ad8:	f8 94       	cli

00003ada <__stop_program>:
    3ada:	ff cf       	rjmp	.-2      	; 0x3ada <__stop_program>
